
Kommodul_vA0.1.elf:     file format elf32-avr

Sections:
Idx Name          Size      VMA       LMA       File off  Algn
  0 .text         000001a8  00000000  00000000  00000074  2**1
                  CONTENTS, ALLOC, LOAD, READONLY, CODE
  1 .bss          00000003  00800100  00800100  0000021c  2**0
                  ALLOC
  2 .comment      00000030  00000000  00000000  0000021c  2**0
                  CONTENTS, READONLY
  3 .debug_aranges 00000070  00000000  00000000  0000024c  2**0
                  CONTENTS, READONLY, DEBUGGING
  4 .debug_info   00000244  00000000  00000000  000002bc  2**0
                  CONTENTS, READONLY, DEBUGGING
  5 .debug_abbrev 00000151  00000000  00000000  00000500  2**0
                  CONTENTS, READONLY, DEBUGGING
  6 .debug_line   00000215  00000000  00000000  00000651  2**0
                  CONTENTS, READONLY, DEBUGGING
  7 .debug_frame  00000128  00000000  00000000  00000868  2**2
                  CONTENTS, READONLY, DEBUGGING
  8 .debug_str    0000020d  00000000  00000000  00000990  2**0
                  CONTENTS, READONLY, DEBUGGING
  9 .debug_loc    00000136  00000000  00000000  00000b9d  2**0
                  CONTENTS, READONLY, DEBUGGING
 10 .debug_ranges 00000060  00000000  00000000  00000cd3  2**0
                  CONTENTS, READONLY, DEBUGGING

Disassembly of section .text:

00000000 <__vectors>:
   0:	45 c0       	rjmp	.+138    	; 0x8c <__ctors_end>
   2:	00 00       	nop
   4:	60 c0       	rjmp	.+192    	; 0xc6 <__bad_interrupt>
   6:	00 00       	nop
   8:	5e c0       	rjmp	.+188    	; 0xc6 <__bad_interrupt>
   a:	00 00       	nop
   c:	5c c0       	rjmp	.+184    	; 0xc6 <__bad_interrupt>
   e:	00 00       	nop
  10:	5a c0       	rjmp	.+180    	; 0xc6 <__bad_interrupt>
  12:	00 00       	nop
  14:	58 c0       	rjmp	.+176    	; 0xc6 <__bad_interrupt>
  16:	00 00       	nop
  18:	56 c0       	rjmp	.+172    	; 0xc6 <__bad_interrupt>
  1a:	00 00       	nop
  1c:	54 c0       	rjmp	.+168    	; 0xc6 <__bad_interrupt>
  1e:	00 00       	nop
  20:	52 c0       	rjmp	.+164    	; 0xc6 <__bad_interrupt>
  22:	00 00       	nop
  24:	50 c0       	rjmp	.+160    	; 0xc6 <__bad_interrupt>
  26:	00 00       	nop
  28:	4e c0       	rjmp	.+156    	; 0xc6 <__bad_interrupt>
  2a:	00 00       	nop
  2c:	4c c0       	rjmp	.+152    	; 0xc6 <__bad_interrupt>
  2e:	00 00       	nop
  30:	4a c0       	rjmp	.+148    	; 0xc6 <__bad_interrupt>
  32:	00 00       	nop
  34:	48 c0       	rjmp	.+144    	; 0xc6 <__bad_interrupt>
  36:	00 00       	nop
  38:	46 c0       	rjmp	.+140    	; 0xc6 <__bad_interrupt>
  3a:	00 00       	nop
  3c:	44 c0       	rjmp	.+136    	; 0xc6 <__bad_interrupt>
  3e:	00 00       	nop
  40:	42 c0       	rjmp	.+132    	; 0xc6 <__bad_interrupt>
  42:	00 00       	nop
  44:	40 c0       	rjmp	.+128    	; 0xc6 <__bad_interrupt>
  46:	00 00       	nop
  48:	3e c0       	rjmp	.+124    	; 0xc6 <__bad_interrupt>
  4a:	00 00       	nop
  4c:	46 c0       	rjmp	.+140    	; 0xda <__vector_19>
  4e:	00 00       	nop
  50:	6a c0       	rjmp	.+212    	; 0x126 <__vector_20>
  52:	00 00       	nop
  54:	38 c0       	rjmp	.+112    	; 0xc6 <__bad_interrupt>
  56:	00 00       	nop
  58:	91 c0       	rjmp	.+290    	; 0x17c <__vector_22>
  5a:	00 00       	nop
  5c:	34 c0       	rjmp	.+104    	; 0xc6 <__bad_interrupt>
  5e:	00 00       	nop
  60:	32 c0       	rjmp	.+100    	; 0xc6 <__bad_interrupt>
  62:	00 00       	nop
  64:	30 c0       	rjmp	.+96     	; 0xc6 <__bad_interrupt>
  66:	00 00       	nop
  68:	2e c0       	rjmp	.+92     	; 0xc6 <__bad_interrupt>
  6a:	00 00       	nop
  6c:	2c c0       	rjmp	.+88     	; 0xc6 <__bad_interrupt>
  6e:	00 00       	nop
  70:	2a c0       	rjmp	.+84     	; 0xc6 <__bad_interrupt>
  72:	00 00       	nop
  74:	28 c0       	rjmp	.+80     	; 0xc6 <__bad_interrupt>
  76:	00 00       	nop
  78:	26 c0       	rjmp	.+76     	; 0xc6 <__bad_interrupt>
  7a:	00 00       	nop
  7c:	24 c0       	rjmp	.+72     	; 0xc6 <__bad_interrupt>
  7e:	00 00       	nop
  80:	22 c0       	rjmp	.+68     	; 0xc6 <__bad_interrupt>
  82:	00 00       	nop
  84:	20 c0       	rjmp	.+64     	; 0xc6 <__bad_interrupt>
  86:	00 00       	nop
  88:	1e c0       	rjmp	.+60     	; 0xc6 <__bad_interrupt>
	...

0000008c <__ctors_end>:
  8c:	11 24       	eor	r1, r1
  8e:	1f be       	out	0x3f, r1	; 63
  90:	cf ef       	ldi	r28, 0xFF	; 255
  92:	d0 e4       	ldi	r29, 0x40	; 64
  94:	de bf       	out	0x3e, r29	; 62
  96:	cd bf       	out	0x3d, r28	; 61

00000098 <__do_copy_data>:
  98:	11 e0       	ldi	r17, 0x01	; 1
  9a:	a0 e0       	ldi	r26, 0x00	; 0
  9c:	b1 e0       	ldi	r27, 0x01	; 1
  9e:	e8 ea       	ldi	r30, 0xA8	; 168
  a0:	f1 e0       	ldi	r31, 0x01	; 1
  a2:	00 e0       	ldi	r16, 0x00	; 0
  a4:	0b bf       	out	0x3b, r16	; 59
  a6:	02 c0       	rjmp	.+4      	; 0xac <__do_copy_data+0x14>
  a8:	07 90       	elpm	r0, Z+
  aa:	0d 92       	st	X+, r0
  ac:	a0 30       	cpi	r26, 0x00	; 0
  ae:	b1 07       	cpc	r27, r17
  b0:	d9 f7       	brne	.-10     	; 0xa8 <__do_copy_data+0x10>

000000b2 <__do_clear_bss>:
  b2:	21 e0       	ldi	r18, 0x01	; 1
  b4:	a0 e0       	ldi	r26, 0x00	; 0
  b6:	b1 e0       	ldi	r27, 0x01	; 1
  b8:	01 c0       	rjmp	.+2      	; 0xbc <.do_clear_bss_start>

000000ba <.do_clear_bss_loop>:
  ba:	1d 92       	st	X+, r1

000000bc <.do_clear_bss_start>:
  bc:	a3 30       	cpi	r26, 0x03	; 3
  be:	b2 07       	cpc	r27, r18
  c0:	e1 f7       	brne	.-8      	; 0xba <.do_clear_bss_loop>
  c2:	66 d0       	rcall	.+204    	; 0x190 <main>
  c4:	6f c0       	rjmp	.+222    	; 0x1a4 <_exit>

000000c6 <__bad_interrupt>:
  c6:	9c cf       	rjmp	.-200    	; 0x0 <__vectors>

000000c8 <Komm_InitPortDirections>:
// Receive data via BT.
unsigned char BT_receive(void)
{

	return UDR0;
}
  c8:	80 e4       	ldi	r24, 0x40	; 64
  ca:	84 b9       	out	0x04, r24	; 4
  cc:	82 e0       	ldi	r24, 0x02	; 2
  ce:	8a b9       	out	0x0a, r24	; 10
  d0:	08 95       	ret

000000d2 <SPI_SlaveInit>:
  d2:	1d bc       	out	0x2d, r1	; 45
  d4:	83 ee       	ldi	r24, 0xE3	; 227
  d6:	8c bd       	out	0x2c, r24	; 44
  d8:	08 95       	ret

000000da <__vector_19>:
  da:	1f 92       	push	r1
  dc:	0f 92       	push	r0
  de:	0f b6       	in	r0, 0x3f	; 63
  e0:	0f 92       	push	r0
  e2:	11 24       	eor	r1, r1
  e4:	8f 93       	push	r24
  e6:	80 91 00 01 	lds	r24, 0x0100
  ea:	8e bd       	out	0x2e, r24	; 46
  ec:	8f 91       	pop	r24
  ee:	0f 90       	pop	r0
  f0:	0f be       	out	0x3f, r0	; 63
  f2:	0f 90       	pop	r0
  f4:	1f 90       	pop	r1
  f6:	18 95       	reti

000000f8 <BT_init>:
  f8:	10 92 c5 00 	sts	0x00C5, r1
  fc:	87 e0       	ldi	r24, 0x07	; 7
  fe:	80 93 c4 00 	sts	0x00C4, r24
 102:	88 ed       	ldi	r24, 0xD8	; 216
 104:	80 93 c1 00 	sts	0x00C1, r24
 108:	86 e0       	ldi	r24, 0x06	; 6
 10a:	80 93 c2 00 	sts	0x00C2, r24
 10e:	08 95       	ret

00000110 <BT_transmit>:

// Transmit data via BT.
void BT_transmit(char data)
{
	while(!( UCSR0A & (1<<UDRE0)));
 110:	e0 ec       	ldi	r30, 0xC0	; 192
 112:	f0 e0       	ldi	r31, 0x00	; 0
 114:	90 81       	ld	r25, Z
 116:	95 ff       	sbrs	r25, 5
 118:	fd cf       	rjmp	.-6      	; 0x114 <BT_transmit+0x4>
	UDR0 = data;
 11a:	80 93 c6 00 	sts	0x00C6, r24
	SPDR = data;
 11e:	8e bd       	out	0x2e, r24	; 46
	inSPDR = data;
 120:	80 93 00 01 	sts	0x0100, r24
 124:	08 95       	ret

00000126 <__vector_20>:
}

// Receive complete
ISR(USART0_RX_vect) 
{
 126:	1f 92       	push	r1
 128:	0f 92       	push	r0
 12a:	0f b6       	in	r0, 0x3f	; 63
 12c:	0f 92       	push	r0
 12e:	11 24       	eor	r1, r1
 130:	0b b6       	in	r0, 0x3b	; 59
 132:	0f 92       	push	r0
 134:	2f 93       	push	r18
 136:	3f 93       	push	r19
 138:	4f 93       	push	r20
 13a:	5f 93       	push	r21
 13c:	6f 93       	push	r22
 13e:	7f 93       	push	r23
 140:	8f 93       	push	r24
 142:	9f 93       	push	r25
 144:	af 93       	push	r26
 146:	bf 93       	push	r27
 148:	ef 93       	push	r30
 14a:	ff 93       	push	r31
	inBT = UDR0;
 14c:	80 91 c6 00 	lds	r24, 0x00C6
 150:	80 93 02 01 	sts	0x0102, r24
	//inBT = BT_receive();
	BT_transmit(inBT); // Send back incoming
 154:	dd df       	rcall	.-70     	; 0x110 <BT_transmit>
}
 156:	ff 91       	pop	r31
 158:	ef 91       	pop	r30
 15a:	bf 91       	pop	r27
 15c:	af 91       	pop	r26
 15e:	9f 91       	pop	r25
 160:	8f 91       	pop	r24
 162:	7f 91       	pop	r23
 164:	6f 91       	pop	r22
 166:	5f 91       	pop	r21
 168:	4f 91       	pop	r20
 16a:	3f 91       	pop	r19
 16c:	2f 91       	pop	r18
 16e:	0f 90       	pop	r0
 170:	0b be       	out	0x3b, r0	; 59
 172:	0f 90       	pop	r0
 174:	0f be       	out	0x3f, r0	; 63
 176:	0f 90       	pop	r0
 178:	1f 90       	pop	r1
 17a:	18 95       	reti

0000017c <__vector_22>:

// Transmission complete
ISR(USART0_TX_vect) 
{
 17c:	1f 92       	push	r1
 17e:	0f 92       	push	r0
 180:	0f b6       	in	r0, 0x3f	; 63
 182:	0f 92       	push	r0
 184:	11 24       	eor	r1, r1

}
 186:	0f 90       	pop	r0
 188:	0f be       	out	0x3f, r0	; 63
 18a:	0f 90       	pop	r0
 18c:	1f 90       	pop	r1
 18e:	18 95       	reti

00000190 <main>:

int main(void)
{
	sleep_enable();
 190:	83 b7       	in	r24, 0x33	; 51
 192:	81 60       	ori	r24, 0x01	; 1
 194:	83 bf       	out	0x33, r24	; 51
	Komm_InitPortDirections();
 196:	98 df       	rcall	.-208    	; 0xc8 <Komm_InitPortDirections>
}

// Initiate port values.
void Komm_InitPortValues(void)
{
	PORTB = 1<<PORTB4;
 198:	80 e1       	ldi	r24, 0x10	; 16
 19a:	85 b9       	out	0x05, r24	; 5
int main(void)
{
	sleep_enable();
	Komm_InitPortDirections();
	Komm_InitPortValues();
	SPI_SlaveInit();
 19c:	9a df       	rcall	.-204    	; 0xd2 <SPI_SlaveInit>
	BT_init();
 19e:	ac df       	rcall	.-168    	; 0xf8 <BT_init>
	sei();
 1a0:	78 94       	sei
 1a2:	ff cf       	rjmp	.-2      	; 0x1a2 <main+0x12>

000001a4 <_exit>:
 1a4:	f8 94       	cli

000001a6 <__stop_program>:
 1a6:	ff cf       	rjmp	.-2      	; 0x1a6 <__stop_program>
