
Sensormodul_test.elf:     file format elf32-avr

Sections:
Idx Name          Size      VMA       LMA       File off  Algn
  0 .text         0000031a  00000000  00000000  00000074  2**1
                  CONTENTS, ALLOC, LOAD, READONLY, CODE
  1 .bss          00000212  00800100  00800100  0000038e  2**0
                  ALLOC
  2 .comment      00000030  00000000  00000000  0000038e  2**0
                  CONTENTS, READONLY
  3 .debug_aranges 00000060  00000000  00000000  000003be  2**0
                  CONTENTS, READONLY, DEBUGGING
  4 .debug_info   00000411  00000000  00000000  0000041e  2**0
                  CONTENTS, READONLY, DEBUGGING
  5 .debug_abbrev 000001fa  00000000  00000000  0000082f  2**0
                  CONTENTS, READONLY, DEBUGGING
  6 .debug_line   0000032a  00000000  00000000  00000a29  2**0
                  CONTENTS, READONLY, DEBUGGING
  7 .debug_frame  00000110  00000000  00000000  00000d54  2**2
                  CONTENTS, READONLY, DEBUGGING
  8 .debug_str    000002d7  00000000  00000000  00000e64  2**0
                  CONTENTS, READONLY, DEBUGGING
  9 .debug_loc    00000542  00000000  00000000  0000113b  2**0
                  CONTENTS, READONLY, DEBUGGING
 10 .debug_ranges 00000088  00000000  00000000  0000167d  2**0
                  CONTENTS, READONLY, DEBUGGING

Disassembly of section .text:

00000000 <__vectors>:
   0:	45 c0       	rjmp	.+138    	; 0x8c <__ctors_end>
   2:	00 00       	nop
   4:	60 c0       	rjmp	.+192    	; 0xc6 <__bad_interrupt>
   6:	00 00       	nop
   8:	5e c0       	rjmp	.+188    	; 0xc6 <__bad_interrupt>
   a:	00 00       	nop
   c:	5c c0       	rjmp	.+184    	; 0xc6 <__bad_interrupt>
   e:	00 00       	nop
  10:	5a c0       	rjmp	.+180    	; 0xc6 <__bad_interrupt>
  12:	00 00       	nop
  14:	58 c0       	rjmp	.+176    	; 0xc6 <__bad_interrupt>
  16:	00 00       	nop
  18:	56 c0       	rjmp	.+172    	; 0xc6 <__bad_interrupt>
  1a:	00 00       	nop
  1c:	54 c0       	rjmp	.+168    	; 0xc6 <__bad_interrupt>
  1e:	00 00       	nop
  20:	52 c0       	rjmp	.+164    	; 0xc6 <__bad_interrupt>
  22:	00 00       	nop
  24:	50 c0       	rjmp	.+160    	; 0xc6 <__bad_interrupt>
  26:	00 00       	nop
  28:	4e c0       	rjmp	.+156    	; 0xc6 <__bad_interrupt>
  2a:	00 00       	nop
  2c:	4c c0       	rjmp	.+152    	; 0xc6 <__bad_interrupt>
  2e:	00 00       	nop
  30:	4a c0       	rjmp	.+148    	; 0xc6 <__bad_interrupt>
  32:	00 00       	nop
  34:	48 c0       	rjmp	.+144    	; 0xc6 <__bad_interrupt>
  36:	00 00       	nop
  38:	46 c0       	rjmp	.+140    	; 0xc6 <__bad_interrupt>
  3a:	00 00       	nop
  3c:	44 c0       	rjmp	.+136    	; 0xc6 <__bad_interrupt>
  3e:	00 00       	nop
  40:	42 c0       	rjmp	.+132    	; 0xc6 <__bad_interrupt>
  42:	00 00       	nop
  44:	40 c0       	rjmp	.+128    	; 0xc6 <__bad_interrupt>
  46:	00 00       	nop
  48:	3e c0       	rjmp	.+124    	; 0xc6 <__bad_interrupt>
  4a:	00 00       	nop
  4c:	48 c1       	rjmp	.+656    	; 0x2de <__vector_19>
  4e:	00 00       	nop
  50:	3a c0       	rjmp	.+116    	; 0xc6 <__bad_interrupt>
  52:	00 00       	nop
  54:	38 c0       	rjmp	.+112    	; 0xc6 <__bad_interrupt>
  56:	00 00       	nop
  58:	36 c0       	rjmp	.+108    	; 0xc6 <__bad_interrupt>
  5a:	00 00       	nop
  5c:	34 c0       	rjmp	.+104    	; 0xc6 <__bad_interrupt>
  5e:	00 00       	nop
  60:	f9 c0       	rjmp	.+498    	; 0x254 <__vector_24>
  62:	00 00       	nop
  64:	30 c0       	rjmp	.+96     	; 0xc6 <__bad_interrupt>
  66:	00 00       	nop
  68:	2e c0       	rjmp	.+92     	; 0xc6 <__bad_interrupt>
  6a:	00 00       	nop
  6c:	2c c0       	rjmp	.+88     	; 0xc6 <__bad_interrupt>
  6e:	00 00       	nop
  70:	2a c0       	rjmp	.+84     	; 0xc6 <__bad_interrupt>
  72:	00 00       	nop
  74:	28 c0       	rjmp	.+80     	; 0xc6 <__bad_interrupt>
  76:	00 00       	nop
  78:	26 c0       	rjmp	.+76     	; 0xc6 <__bad_interrupt>
  7a:	00 00       	nop
  7c:	24 c0       	rjmp	.+72     	; 0xc6 <__bad_interrupt>
  7e:	00 00       	nop
  80:	22 c0       	rjmp	.+68     	; 0xc6 <__bad_interrupt>
  82:	00 00       	nop
  84:	20 c0       	rjmp	.+64     	; 0xc6 <__bad_interrupt>
  86:	00 00       	nop
  88:	1e c0       	rjmp	.+60     	; 0xc6 <__bad_interrupt>
	...

0000008c <__ctors_end>:
  8c:	11 24       	eor	r1, r1
  8e:	1f be       	out	0x3f, r1	; 63
  90:	cf ef       	ldi	r28, 0xFF	; 255
  92:	d0 e4       	ldi	r29, 0x40	; 64
  94:	de bf       	out	0x3e, r29	; 62
  96:	cd bf       	out	0x3d, r28	; 61

00000098 <__do_copy_data>:
  98:	11 e0       	ldi	r17, 0x01	; 1
  9a:	a0 e0       	ldi	r26, 0x00	; 0
  9c:	b1 e0       	ldi	r27, 0x01	; 1
  9e:	ea e1       	ldi	r30, 0x1A	; 26
  a0:	f3 e0       	ldi	r31, 0x03	; 3
  a2:	00 e0       	ldi	r16, 0x00	; 0
  a4:	0b bf       	out	0x3b, r16	; 59
  a6:	02 c0       	rjmp	.+4      	; 0xac <__do_copy_data+0x14>
  a8:	07 90       	elpm	r0, Z+
  aa:	0d 92       	st	X+, r0
  ac:	a0 30       	cpi	r26, 0x00	; 0
  ae:	b1 07       	cpc	r27, r17
  b0:	d9 f7       	brne	.-10     	; 0xa8 <__do_copy_data+0x10>

000000b2 <__do_clear_bss>:
  b2:	23 e0       	ldi	r18, 0x03	; 3
  b4:	a0 e0       	ldi	r26, 0x00	; 0
  b6:	b1 e0       	ldi	r27, 0x01	; 1
  b8:	01 c0       	rjmp	.+2      	; 0xbc <.do_clear_bss_start>

000000ba <.do_clear_bss_loop>:
  ba:	1d 92       	st	X+, r1

000000bc <.do_clear_bss_start>:
  bc:	a2 31       	cpi	r26, 0x12	; 18
  be:	b2 07       	cpc	r27, r18
  c0:	e1 f7       	brne	.-8      	; 0xba <.do_clear_bss_loop>
  c2:	83 d0       	rcall	.+262    	; 0x1ca <main>
  c4:	28 c1       	rjmp	.+592    	; 0x316 <_exit>

000000c6 <__bad_interrupt>:
  c6:	9c cf       	rjmp	.-200    	; 0x0 <__vectors>

000000c8 <Sensor_InitPortDirections>:
	
	hyp = (front + back)/2 + 80; //100 är avståndet mellan sensorerna
	cath = hyp * cos(angle*M_PI/180);
	
	return (int8_t)(cath/10);
}
  c8:	80 e4       	ldi	r24, 0x40	; 64
  ca:	84 b9       	out	0x04, r24	; 4
  cc:	11 b8       	out	0x01, r1	; 1
  ce:	08 95       	ret

000000d0 <SPI_SlaveInit>:
  d0:	1d bc       	out	0x2d, r1	; 45
  d2:	83 ee       	ldi	r24, 0xE3	; 227
  d4:	8c bd       	out	0x2c, r24	; 44
  d6:	08 95       	ret

000000d8 <distance_table_generator>:
  d8:	e0 e1       	ldi	r30, 0x10	; 16
  da:	f1 e0       	ldi	r31, 0x01	; 1
  dc:	2c e5       	ldi	r18, 0x5C	; 92
  de:	31 e0       	ldi	r19, 0x01	; 1
  e0:	8f ef       	ldi	r24, 0xFF	; 255
  e2:	90 e0       	ldi	r25, 0x00	; 0
  e4:	81 93       	st	Z+, r24
  e6:	91 93       	st	Z+, r25
  e8:	e2 17       	cp	r30, r18
  ea:	f3 07       	cpc	r31, r19
  ec:	d9 f7       	brne	.-10     	; 0xe4 <distance_table_generator+0xc>
  ee:	8a ea       	ldi	r24, 0xAA	; 170
  f0:	90 e0       	ldi	r25, 0x00	; 0
  f2:	90 93 5d 01 	sts	0x015D, r25
  f6:	80 93 5c 01 	sts	0x015C, r24
  fa:	88 ea       	ldi	r24, 0xA8	; 168
  fc:	90 e0       	ldi	r25, 0x00	; 0
  fe:	90 93 5f 01 	sts	0x015F, r25
 102:	80 93 5e 01 	sts	0x015E, r24
 106:	84 ea       	ldi	r24, 0xA4	; 164
 108:	90 e0       	ldi	r25, 0x00	; 0
 10a:	90 93 61 01 	sts	0x0161, r25
 10e:	80 93 60 01 	sts	0x0160, r24
 112:	80 ea       	ldi	r24, 0xA0	; 160
 114:	90 e0       	ldi	r25, 0x00	; 0
 116:	90 93 63 01 	sts	0x0163, r25
 11a:	80 93 62 01 	sts	0x0162, r24
 11e:	8c e9       	ldi	r24, 0x9C	; 156
 120:	90 e0       	ldi	r25, 0x00	; 0
 122:	90 93 65 01 	sts	0x0165, r25
 126:	80 93 64 01 	sts	0x0164, r24
 12a:	86 e9       	ldi	r24, 0x96	; 150
 12c:	90 e0       	ldi	r25, 0x00	; 0
 12e:	90 93 67 01 	sts	0x0167, r25
 132:	80 93 66 01 	sts	0x0166, r24
 136:	80 e9       	ldi	r24, 0x90	; 144
 138:	90 e0       	ldi	r25, 0x00	; 0
 13a:	90 93 69 01 	sts	0x0169, r25
 13e:	80 93 68 01 	sts	0x0168, r24
 142:	ea e6       	ldi	r30, 0x6A	; 106
 144:	f1 e0       	ldi	r31, 0x01	; 1
 146:	22 e9       	ldi	r18, 0x92	; 146
 148:	31 e0       	ldi	r19, 0x01	; 1
 14a:	8c e8       	ldi	r24, 0x8C	; 140
 14c:	90 e0       	ldi	r25, 0x00	; 0
 14e:	81 93       	st	Z+, r24
 150:	91 93       	st	Z+, r25
 152:	02 97       	sbiw	r24, 0x02	; 2
 154:	e2 17       	cp	r30, r18
 156:	f3 07       	cpc	r31, r19
 158:	d1 f7       	brne	.-12     	; 0x14e <distance_table_generator+0x76>
 15a:	e2 e9       	ldi	r30, 0x92	; 146
 15c:	f1 e0       	ldi	r31, 0x01	; 1
 15e:	84 e6       	ldi	r24, 0x64	; 100
 160:	90 e0       	ldi	r25, 0x00	; 0
 162:	81 93       	st	Z+, r24
 164:	91 93       	st	Z+, r25
 166:	01 97       	sbiw	r24, 0x01	; 1
 168:	8c 33       	cpi	r24, 0x3C	; 60
 16a:	91 05       	cpc	r25, r1
 16c:	d1 f7       	brne	.-12     	; 0x162 <distance_table_generator+0x8a>
 16e:	1e c0       	rjmp	.+60     	; 0x1ac <distance_table_generator+0xd4>
 170:	9b 01       	movw	r18, r22
 172:	24 1b       	sub	r18, r20
 174:	35 0b       	sbc	r19, r21
 176:	21 93       	st	Z+, r18
 178:	31 93       	st	Z+, r19
 17a:	9c 01       	movw	r18, r24
 17c:	99 23       	and	r25, r25
 17e:	14 f4       	brge	.+4      	; 0x184 <distance_table_generator+0xac>
 180:	2f 5f       	subi	r18, 0xFF	; 255
 182:	3f 4f       	sbci	r19, 0xFF	; 255
 184:	2e 7f       	andi	r18, 0xFE	; 254
 186:	28 17       	cp	r18, r24
 188:	39 07       	cpc	r19, r25
 18a:	11 f4       	brne	.+4      	; 0x190 <distance_table_generator+0xb8>
 18c:	4f 5f       	subi	r20, 0xFF	; 255
 18e:	5f 4f       	sbci	r21, 0xFF	; 255
 190:	01 96       	adiw	r24, 0x01	; 1
 192:	86 39       	cpi	r24, 0x96	; 150
 194:	91 05       	cpc	r25, r1
 196:	61 f7       	brne	.-40     	; 0x170 <distance_table_generator+0x98>
 198:	ec e3       	ldi	r30, 0x3C	; 60
 19a:	f2 e0       	ldi	r31, 0x02	; 2
 19c:	8e e0       	ldi	r24, 0x0E	; 14
 19e:	93 e0       	ldi	r25, 0x03	; 3
 1a0:	11 92       	st	Z+, r1
 1a2:	11 92       	st	Z+, r1
 1a4:	e8 17       	cp	r30, r24
 1a6:	f9 07       	cpc	r31, r25
 1a8:	d9 f7       	brne	.-10     	; 0x1a0 <distance_table_generator+0xc8>
 1aa:	08 95       	ret
 1ac:	8c e3       	ldi	r24, 0x3C	; 60
 1ae:	90 e0       	ldi	r25, 0x00	; 0
 1b0:	90 93 e3 01 	sts	0x01E3, r25
 1b4:	80 93 e2 01 	sts	0x01E2, r24
 1b8:	e4 ee       	ldi	r30, 0xE4	; 228
 1ba:	f1 e0       	ldi	r31, 0x01	; 1
 1bc:	89 e6       	ldi	r24, 0x69	; 105
 1be:	90 e0       	ldi	r25, 0x00	; 0
 1c0:	40 e0       	ldi	r20, 0x00	; 0
 1c2:	50 e0       	ldi	r21, 0x00	; 0
 1c4:	6c e3       	ldi	r22, 0x3C	; 60
 1c6:	70 e0       	ldi	r23, 0x00	; 0
 1c8:	e3 cf       	rjmp	.-58     	; 0x190 <distance_table_generator+0xb8>

000001ca <main>:
	int8_t wall_reflex_information;
	int reflex_bool;
	int8_t left_wall_counter;
	int8_t right_wall_counter;
	
	distance_table_generator(); //Skapa avståndstabellen
 1ca:	86 df       	rcall	.-244    	; 0xd8 <distance_table_generator>
	DDRB = 1<<DDB6;
	DDRA = 0;
}
void Sensor_InitPortValues()
{
	PORTB = 1<<PORTB4;
 1cc:	80 e1       	ldi	r24, 0x10	; 16
 1ce:	85 b9       	out	0x05, r24	; 5
	int8_t right_wall_counter;
	
	distance_table_generator(); //Skapa avståndstabellen
	
	Sensor_InitPortValues();
	Sensor_InitPortDirections();
 1d0:	7b df       	rcall	.-266    	; 0xc8 <Sensor_InitPortDirections>
	SPI_SlaveInit();
 1d2:	7e df       	rcall	.-260    	; 0xd0 <SPI_SlaveInit>
	
	sei(); //Aktiverar globala avbrott
 1d4:	78 94       	sei
	ADCSRA = 143; //Aktivera ADC, ADC-interrupt, Sätt division factor till 128. 20 MHz/128 = 156,25 kHz
 1d6:	8f e8       	ldi	r24, 0x8F	; 143
 1d8:	80 93 7a 00 	sts	0x007A, r24
		
	while(1)
	{
		
//_________________________________________Avläsning________________________________________
		for(int i = 0; i < 8; i++)
 1dc:	80 e0       	ldi	r24, 0x00	; 0
 1de:	90 e0       	ldi	r25, 0x00	; 0
		
		wall_reflex_information = ( (reflex_bool * 64) + (left_wall_counter * 8) + (right_wall_counter) );
			
		//Förhindra avbrott under uppdateringen - höj avbrottsnivån så inga bussavbrott kommer.
		cli();
		send_buffer[0] = 2; //angle;     ****************************TESTAR MED FASTA VÄRDEN********************************
 1e0:	6e e0       	ldi	r22, 0x0E	; 14
 1e2:	73 e0       	ldi	r23, 0x03	; 3
 1e4:	68 94       	set
 1e6:	bb 24       	eor	r11, r11
 1e8:	b1 f8       	bld	r11, 1
		send_buffer[1] = 3; //offset;    ****************************TESTAR MED FASTA VÄRDEN********************************
 1ea:	4f e0       	ldi	r20, 0x0F	; 15
 1ec:	53 e0       	ldi	r21, 0x03	; 3
 1ee:	0f 2e       	mov	r0, r31
 1f0:	f3 e0       	ldi	r31, 0x03	; 3
 1f2:	cf 2e       	mov	r12, r31
 1f4:	f0 2d       	mov	r31, r0
		send_buffer[2] = 4; //front_sensor;****************************TESTAR MED FASTA VÄRDEN********************************
 1f6:	20 e1       	ldi	r18, 0x10	; 16
 1f8:	33 e0       	ldi	r19, 0x03	; 3
 1fa:	68 94       	set
 1fc:	dd 24       	eor	r13, r13
 1fe:	d2 f8       	bld	r13, 2
		send_buffer[3] = 5; //wall_reflex_information;****************************TESTAR MED FASTA VÄRDEN********************************
 200:	c1 e1       	ldi	r28, 0x11	; 17
 202:	d3 e0       	ldi	r29, 0x03	; 3
 204:	0f 2e       	mov	r0, r31
 206:	f5 e0       	ldi	r31, 0x05	; 5
 208:	ef 2e       	mov	r14, r31
 20a:	f0 2d       	mov	r31, r0
		
	while(1)
	{
		
//_________________________________________Avläsning________________________________________
		for(int i = 0; i < 8; i++)
 20c:	f1 2c       	mov	r15, r1
 20e:	00 e0       	ldi	r16, 0x00	; 0
		{
			ADMUX = 32 + i; //Öka admux, sätt ADLAR (bit 5 = 32)
 210:	0f 2e       	mov	r0, r31
 212:	fc e7       	ldi	r31, 0x7C	; 124
 214:	8f 2e       	mov	r8, r31
 216:	91 2c       	mov	r9, r1
 218:	f0 2d       	mov	r31, r0
			ADCSRA |= (1<<6); //Börja ADC
 21a:	ea e7       	ldi	r30, 0x7A	; 122
 21c:	f0 e0       	ldi	r31, 0x00	; 0
 21e:	0b c0       	rjmp	.+22     	; 0x236 <main+0x6c>
	{
		
//_________________________________________Avläsning________________________________________
		for(int i = 0; i < 8; i++)
		{
			ADMUX = 32 + i; //Öka admux, sätt ADLAR (bit 5 = 32)
 220:	10 e2       	ldi	r17, 0x20	; 32
 222:	18 0f       	add	r17, r24
 224:	d4 01       	movw	r26, r8
 226:	1c 93       	st	X, r17
			ADCSRA |= (1<<6); //Börja ADC
 228:	10 81       	ld	r17, Z
 22a:	10 64       	ori	r17, 0x40	; 64
 22c:	10 83       	st	Z, r17
			
		while(ADCSRA & 1<<ADSC)
 22e:	10 81       	ld	r17, Z
 230:	16 fd       	sbrc	r17, 6
 232:	fd cf       	rjmp	.-6      	; 0x22e <main+0x64>
		
	while(1)
	{
		
//_________________________________________Avläsning________________________________________
		for(int i = 0; i < 8; i++)
 234:	01 96       	adiw	r24, 0x01	; 1
 236:	88 30       	cpi	r24, 0x08	; 8
 238:	91 05       	cpc	r25, r1
 23a:	94 f3       	brlt	.-28     	; 0x220 <main+0x56>
		//För avläsning - and:a bort de ointressanta bitarna och dividera med rätt faktor.
		
		wall_reflex_information = ( (reflex_bool * 64) + (left_wall_counter * 8) + (right_wall_counter) );
			
		//Förhindra avbrott under uppdateringen - höj avbrottsnivån så inga bussavbrott kommer.
		cli();
 23c:	f8 94       	cli
		send_buffer[0] = 2; //angle;     ****************************TESTAR MED FASTA VÄRDEN********************************
 23e:	db 01       	movw	r26, r22
 240:	bc 92       	st	X, r11
		send_buffer[1] = 3; //offset;    ****************************TESTAR MED FASTA VÄRDEN********************************
 242:	da 01       	movw	r26, r20
 244:	cc 92       	st	X, r12
		send_buffer[2] = 4; //front_sensor;****************************TESTAR MED FASTA VÄRDEN********************************
 246:	d9 01       	movw	r26, r18
 248:	dc 92       	st	X, r13
		send_buffer[3] = 5; //wall_reflex_information;****************************TESTAR MED FASTA VÄRDEN********************************
 24a:	e8 82       	st	Y, r14
		sei();
 24c:	78 94       	sei
		
	while(1)
	{
		
//_________________________________________Avläsning________________________________________
		for(int i = 0; i < 8; i++)
 24e:	8f 2d       	mov	r24, r15
 250:	90 2f       	mov	r25, r16
		//Skicka till Styrmodul via SPI
		
		
		//_________________________________________TEST________________________________________
		//_delay_ms(250);
	}			
 252:	f1 cf       	rjmp	.-30     	; 0x236 <main+0x6c>

00000254 <__vector_24>:
}

ISR(ADC_vect)
{
 254:	1f 92       	push	r1
 256:	0f 92       	push	r0
 258:	0f b6       	in	r0, 0x3f	; 63
 25a:	0f 92       	push	r0
 25c:	11 24       	eor	r1, r1
 25e:	0b b6       	in	r0, 0x3b	; 59
 260:	0f 92       	push	r0
 262:	8f 93       	push	r24
 264:	9f 93       	push	r25
 266:	af 93       	push	r26
 268:	bf 93       	push	r27
 26a:	ef 93       	push	r30
 26c:	ff 93       	push	r31
	if ( (ADMUX-32 == 7) || (ADMUX-32 == 2) || (ADMUX-32 == 5) ){
 26e:	80 91 7c 00 	lds	r24, 0x007C
 272:	87 32       	cpi	r24, 0x27	; 39
 274:	41 f0       	breq	.+16     	; 0x286 <__vector_24+0x32>
 276:	80 91 7c 00 	lds	r24, 0x007C
 27a:	82 32       	cpi	r24, 0x22	; 34
 27c:	21 f0       	breq	.+8      	; 0x286 <__vector_24+0x32>
 27e:	80 91 7c 00 	lds	r24, 0x007C
 282:	85 32       	cpi	r24, 0x25	; 37
 284:	69 f4       	brne	.+26     	; 0x2a0 <__vector_24+0x4c>
	sensor_data[ADMUX-32] = ADCH; // Ifall det är långa sensorn eller reflex ska den inte konverteras.
 286:	e0 91 7c 00 	lds	r30, 0x007C
 28a:	80 91 79 00 	lds	r24, 0x0079
 28e:	f0 e0       	ldi	r31, 0x00	; 0
 290:	ee 0f       	add	r30, r30
 292:	ff 1f       	adc	r31, r31
 294:	e0 54       	subi	r30, 0x40	; 64
 296:	ff 4f       	sbci	r31, 0xFF	; 255
 298:	90 e0       	ldi	r25, 0x00	; 0
 29a:	91 83       	std	Z+1, r25	; 0x01
 29c:	80 83       	st	Z, r24
 29e:	12 c0       	rjmp	.+36     	; 0x2c4 <__vector_24+0x70>
	}
	else
	{
	sensor_data[ADMUX-32] = distance_table[ADCH];
 2a0:	e0 91 7c 00 	lds	r30, 0x007C
 2a4:	a0 91 79 00 	lds	r26, 0x0079
 2a8:	f0 e0       	ldi	r31, 0x00	; 0
 2aa:	ee 0f       	add	r30, r30
 2ac:	ff 1f       	adc	r31, r31
 2ae:	e0 54       	subi	r30, 0x40	; 64
 2b0:	ff 4f       	sbci	r31, 0xFF	; 255
 2b2:	b0 e0       	ldi	r27, 0x00	; 0
 2b4:	aa 0f       	add	r26, r26
 2b6:	bb 1f       	adc	r27, r27
 2b8:	a0 5f       	subi	r26, 0xF0	; 240
 2ba:	be 4f       	sbci	r27, 0xFE	; 254
 2bc:	8d 91       	ld	r24, X+
 2be:	9c 91       	ld	r25, X
 2c0:	91 83       	std	Z+1, r25	; 0x01
 2c2:	80 83       	st	Z, r24
	}	
		
}
 2c4:	ff 91       	pop	r31
 2c6:	ef 91       	pop	r30
 2c8:	bf 91       	pop	r27
 2ca:	af 91       	pop	r26
 2cc:	9f 91       	pop	r25
 2ce:	8f 91       	pop	r24
 2d0:	0f 90       	pop	r0
 2d2:	0b be       	out	0x3b, r0	; 59
 2d4:	0f 90       	pop	r0
 2d6:	0f be       	out	0x3f, r0	; 63
 2d8:	0f 90       	pop	r0
 2da:	1f 90       	pop	r1
 2dc:	18 95       	reti

000002de <__vector_19>:

ISR(SPI_STC_vect)
{
 2de:	1f 92       	push	r1
 2e0:	0f 92       	push	r0
 2e2:	0f b6       	in	r0, 0x3f	; 63
 2e4:	0f 92       	push	r0
 2e6:	11 24       	eor	r1, r1
 2e8:	0b b6       	in	r0, 0x3b	; 59
 2ea:	0f 92       	push	r0
 2ec:	8f 93       	push	r24
 2ee:	ef 93       	push	r30
 2f0:	ff 93       	push	r31
	int8_t inval_ = (int8_t)SPDR;
 2f2:	ee b5       	in	r30, 0x2e	; 46
	
	SPDR = send_buffer[inval_];
 2f4:	ff 27       	eor	r31, r31
 2f6:	e7 fd       	sbrc	r30, 7
 2f8:	f0 95       	com	r31
 2fa:	e2 5f       	subi	r30, 0xF2	; 242
 2fc:	fc 4f       	sbci	r31, 0xFC	; 252
 2fe:	80 81       	ld	r24, Z
 300:	8e bd       	out	0x2e, r24	; 46
}
 302:	ff 91       	pop	r31
 304:	ef 91       	pop	r30
 306:	8f 91       	pop	r24
 308:	0f 90       	pop	r0
 30a:	0b be       	out	0x3b, r0	; 59
 30c:	0f 90       	pop	r0
 30e:	0f be       	out	0x3f, r0	; 63
 310:	0f 90       	pop	r0
 312:	1f 90       	pop	r1
 314:	18 95       	reti

00000316 <_exit>:
 316:	f8 94       	cli

00000318 <__stop_program>:
 318:	ff cf       	rjmp	.-2      	; 0x318 <__stop_program>
