
Sensormodul_test.elf:     file format elf32-avr

Sections:
Idx Name          Size      VMA       LMA       File off  Algn
  0 .text         00000af0  00000000  00000000  00000074  2**1
                  CONTENTS, ALLOC, LOAD, READONLY, CODE
  1 .bss          00000216  00800100  00800100  00000b64  2**0
                  ALLOC
  2 .comment      00000030  00000000  00000000  00000b64  2**0
                  CONTENTS, READONLY
  3 .debug_aranges 00000048  00000000  00000000  00000b94  2**0
                  CONTENTS, READONLY, DEBUGGING
  4 .debug_info   000004a7  00000000  00000000  00000bdc  2**0
                  CONTENTS, READONLY, DEBUGGING
  5 .debug_abbrev 000001fd  00000000  00000000  00001083  2**0
                  CONTENTS, READONLY, DEBUGGING
  6 .debug_line   0000042c  00000000  00000000  00001280  2**0
                  CONTENTS, READONLY, DEBUGGING
  7 .debug_frame  000000d0  00000000  00000000  000016ac  2**2
                  CONTENTS, READONLY, DEBUGGING
  8 .debug_str    000002c4  00000000  00000000  0000177c  2**0
                  CONTENTS, READONLY, DEBUGGING
  9 .debug_loc    000005e9  00000000  00000000  00001a40  2**0
                  CONTENTS, READONLY, DEBUGGING
 10 .debug_ranges 00000070  00000000  00000000  00002029  2**0
                  CONTENTS, READONLY, DEBUGGING

Disassembly of section .text:

00000000 <__vectors>:
   0:	6b c0       	rjmp	.+214    	; 0xd8 <__ctors_end>
   2:	00 00       	nop
   4:	79 c0       	rjmp	.+242    	; 0xf8 <__bad_interrupt>
   6:	00 00       	nop
   8:	77 c0       	rjmp	.+238    	; 0xf8 <__bad_interrupt>
   a:	00 00       	nop
   c:	75 c0       	rjmp	.+234    	; 0xf8 <__bad_interrupt>
   e:	00 00       	nop
  10:	73 c0       	rjmp	.+230    	; 0xf8 <__bad_interrupt>
  12:	00 00       	nop
  14:	71 c0       	rjmp	.+226    	; 0xf8 <__bad_interrupt>
  16:	00 00       	nop
  18:	6f c0       	rjmp	.+222    	; 0xf8 <__bad_interrupt>
  1a:	00 00       	nop
  1c:	6d c0       	rjmp	.+218    	; 0xf8 <__bad_interrupt>
  1e:	00 00       	nop
  20:	6b c0       	rjmp	.+214    	; 0xf8 <__bad_interrupt>
  22:	00 00       	nop
  24:	69 c0       	rjmp	.+210    	; 0xf8 <__bad_interrupt>
  26:	00 00       	nop
  28:	67 c0       	rjmp	.+206    	; 0xf8 <__bad_interrupt>
  2a:	00 00       	nop
  2c:	65 c0       	rjmp	.+202    	; 0xf8 <__bad_interrupt>
  2e:	00 00       	nop
  30:	63 c0       	rjmp	.+198    	; 0xf8 <__bad_interrupt>
  32:	00 00       	nop
  34:	61 c0       	rjmp	.+194    	; 0xf8 <__bad_interrupt>
  36:	00 00       	nop
  38:	5f c0       	rjmp	.+190    	; 0xf8 <__bad_interrupt>
  3a:	00 00       	nop
  3c:	5d c0       	rjmp	.+186    	; 0xf8 <__bad_interrupt>
  3e:	00 00       	nop
  40:	5b c0       	rjmp	.+182    	; 0xf8 <__bad_interrupt>
  42:	00 00       	nop
  44:	59 c0       	rjmp	.+178    	; 0xf8 <__bad_interrupt>
  46:	00 00       	nop
  48:	57 c0       	rjmp	.+174    	; 0xf8 <__bad_interrupt>
  4a:	00 00       	nop
  4c:	82 c2       	rjmp	.+1284   	; 0x552 <__vector_19>
  4e:	00 00       	nop
  50:	53 c0       	rjmp	.+166    	; 0xf8 <__bad_interrupt>
  52:	00 00       	nop
  54:	51 c0       	rjmp	.+162    	; 0xf8 <__bad_interrupt>
  56:	00 00       	nop
  58:	4f c0       	rjmp	.+158    	; 0xf8 <__bad_interrupt>
  5a:	00 00       	nop
  5c:	4d c0       	rjmp	.+154    	; 0xf8 <__bad_interrupt>
  5e:	00 00       	nop
  60:	33 c2       	rjmp	.+1126   	; 0x4c8 <__vector_24>
  62:	00 00       	nop
  64:	49 c0       	rjmp	.+146    	; 0xf8 <__bad_interrupt>
  66:	00 00       	nop
  68:	47 c0       	rjmp	.+142    	; 0xf8 <__bad_interrupt>
  6a:	00 00       	nop
  6c:	45 c0       	rjmp	.+138    	; 0xf8 <__bad_interrupt>
  6e:	00 00       	nop
  70:	43 c0       	rjmp	.+134    	; 0xf8 <__bad_interrupt>
  72:	00 00       	nop
  74:	41 c0       	rjmp	.+130    	; 0xf8 <__bad_interrupt>
  76:	00 00       	nop
  78:	3f c0       	rjmp	.+126    	; 0xf8 <__bad_interrupt>
  7a:	00 00       	nop
  7c:	3d c0       	rjmp	.+122    	; 0xf8 <__bad_interrupt>
  7e:	00 00       	nop
  80:	3b c0       	rjmp	.+118    	; 0xf8 <__bad_interrupt>
  82:	00 00       	nop
  84:	39 c0       	rjmp	.+114    	; 0xf8 <__bad_interrupt>
  86:	00 00       	nop
  88:	37 c0       	rjmp	.+110    	; 0xf8 <__bad_interrupt>
  8a:	00 00       	nop
  8c:	08 4a       	sbci	r16, 0xA8	; 168
  8e:	d7 3b       	cpi	r29, 0xB7	; 183
  90:	3b ce       	rjmp	.-906    	; 0xfffffd08 <__eeprom_end+0xff7efd08>
  92:	01 6e       	ori	r16, 0xE1	; 225
  94:	84 bc       	out	0x24, r8	; 36
  96:	bf fd       	.word	0xfdbf	; ????
  98:	c1 2f       	mov	r28, r17
  9a:	3d 6c       	ori	r19, 0xCD	; 205
  9c:	74 31       	cpi	r23, 0x14	; 20
  9e:	9a bd       	out	0x2a, r25	; 42
  a0:	56 83       	std	Z+6, r21	; 0x06
  a2:	3d da       	rcall	.-2950   	; 0xfffff51e <__eeprom_end+0xff7ef51e>
  a4:	3d 00       	.word	0x003d	; ????
  a6:	c7 7f       	andi	r28, 0xF7	; 247
  a8:	11 be       	out	0x31, r1	; 49
  aa:	d9 e4       	ldi	r29, 0x49	; 73
  ac:	bb 4c       	sbci	r27, 0xCB	; 203
  ae:	3e 91       	ld	r19, -X
  b0:	6b aa       	std	Y+51, r6	; 0x33
  b2:	aa be       	out	0x3a, r10	; 58
  b4:	00 00       	nop
  b6:	00 80       	ld	r0, Z
  b8:	3f 05       	cpc	r19, r15
  ba:	a8 4c       	sbci	r26, 0xC8	; 200
  bc:	cd b2       	in	r12, 0x1d	; 29
  be:	d4 4e       	sbci	r29, 0xE4	; 228
  c0:	b9 38       	cpi	r27, 0x89	; 137
  c2:	36 a9       	ldd	r19, Z+54	; 0x36
  c4:	02 0c       	add	r0, r2
  c6:	50 b9       	out	0x00, r21	; 0
  c8:	91 86       	std	Z+9, r9	; 0x09
  ca:	88 08       	sbc	r8, r8
  cc:	3c a6       	std	Y+44, r3	; 0x2c
  ce:	aa aa       	std	Y+50, r10	; 0x32
  d0:	2a be       	out	0x3a, r2	; 58
  d2:	00 00       	nop
  d4:	00 80       	ld	r0, Z
  d6:	3f 00       	.word	0x003f	; ????

000000d8 <__ctors_end>:
  d8:	11 24       	eor	r1, r1
  da:	1f be       	out	0x3f, r1	; 63
  dc:	cf ef       	ldi	r28, 0xFF	; 255
  de:	d0 e4       	ldi	r29, 0x40	; 64
  e0:	de bf       	out	0x3e, r29	; 62
  e2:	cd bf       	out	0x3d, r28	; 61

000000e4 <__do_clear_bss>:
  e4:	23 e0       	ldi	r18, 0x03	; 3
  e6:	a0 e0       	ldi	r26, 0x00	; 0
  e8:	b1 e0       	ldi	r27, 0x01	; 1
  ea:	01 c0       	rjmp	.+2      	; 0xee <.do_clear_bss_start>

000000ec <.do_clear_bss_loop>:
  ec:	1d 92       	st	X+, r1

000000ee <.do_clear_bss_start>:
  ee:	a6 31       	cpi	r26, 0x16	; 22
  f0:	b2 07       	cpc	r27, r18
  f2:	e1 f7       	brne	.-8      	; 0xec <.do_clear_bss_loop>
  f4:	d4 d0       	rcall	.+424    	; 0x29e <main>
  f6:	fa c4       	rjmp	.+2548   	; 0xaec <_exit>

000000f8 <__bad_interrupt>:
  f8:	83 cf       	rjmp	.-250    	; 0x0 <__vectors>

000000fa <distance_table_generator>:
int distance_table[255]; 
int buffer_flag = 0;


void distance_table_generator()
{
  fa:	e0 e1       	ldi	r30, 0x10	; 16
  fc:	f1 e0       	ldi	r31, 0x01	; 1
  fe:	2c e5       	ldi	r18, 0x5C	; 92
 100:	31 e0       	ldi	r19, 0x01	; 1
	for (int i = 0; i < 38; i++)
	{
		distance_table[i] = 255;
 102:	8f ef       	ldi	r24, 0xFF	; 255
 104:	90 e0       	ldi	r25, 0x00	; 0
 106:	81 93       	st	Z+, r24
 108:	91 93       	st	Z+, r25
int buffer_flag = 0;


void distance_table_generator()
{
	for (int i = 0; i < 38; i++)
 10a:	e2 17       	cp	r30, r18
 10c:	f3 07       	cpc	r31, r19
 10e:	d9 f7       	brne	.-10     	; 0x106 <distance_table_generator+0xc>
	{
		distance_table[i] = 255;
	}
	
	distance_table[38] = 170;
 110:	8a ea       	ldi	r24, 0xAA	; 170
 112:	90 e0       	ldi	r25, 0x00	; 0
 114:	90 93 5d 01 	sts	0x015D, r25
 118:	80 93 5c 01 	sts	0x015C, r24
	distance_table[39] = 168;
 11c:	88 ea       	ldi	r24, 0xA8	; 168
 11e:	90 e0       	ldi	r25, 0x00	; 0
 120:	90 93 5f 01 	sts	0x015F, r25
 124:	80 93 5e 01 	sts	0x015E, r24
	distance_table[40] = 164;
 128:	84 ea       	ldi	r24, 0xA4	; 164
 12a:	90 e0       	ldi	r25, 0x00	; 0
 12c:	90 93 61 01 	sts	0x0161, r25
 130:	80 93 60 01 	sts	0x0160, r24
	distance_table[41] = 160;
 134:	80 ea       	ldi	r24, 0xA0	; 160
 136:	90 e0       	ldi	r25, 0x00	; 0
 138:	90 93 63 01 	sts	0x0163, r25
 13c:	80 93 62 01 	sts	0x0162, r24
	distance_table[42] = 156;
 140:	8c e9       	ldi	r24, 0x9C	; 156
 142:	90 e0       	ldi	r25, 0x00	; 0
 144:	90 93 65 01 	sts	0x0165, r25
 148:	80 93 64 01 	sts	0x0164, r24
	distance_table[43] = 150;
 14c:	86 e9       	ldi	r24, 0x96	; 150
 14e:	90 e0       	ldi	r25, 0x00	; 0
 150:	90 93 67 01 	sts	0x0167, r25
 154:	80 93 66 01 	sts	0x0166, r24
	distance_table[44] = 144;
 158:	80 e9       	ldi	r24, 0x90	; 144
 15a:	90 e0       	ldi	r25, 0x00	; 0
 15c:	90 93 69 01 	sts	0x0169, r25
 160:	80 93 68 01 	sts	0x0168, r24
 164:	ea e6       	ldi	r30, 0x6A	; 106
 166:	f1 e0       	ldi	r31, 0x01	; 1
 168:	22 e9       	ldi	r18, 0x92	; 146
 16a:	31 e0       	ldi	r19, 0x01	; 1
 16c:	8c e8       	ldi	r24, 0x8C	; 140
 16e:	90 e0       	ldi	r25, 0x00	; 0
	
	int k = 0;
	
	for (int i = 45; i < 65; i++)
	{
		distance_table[i] = 140 - k*2;
 170:	81 93       	st	Z+, r24
 172:	91 93       	st	Z+, r25
 174:	02 97       	sbiw	r24, 0x02	; 2
	distance_table[43] = 150;
	distance_table[44] = 144;
	
	int k = 0;
	
	for (int i = 45; i < 65; i++)
 176:	e2 17       	cp	r30, r18
 178:	f3 07       	cpc	r31, r19
 17a:	d1 f7       	brne	.-12     	; 0x170 <distance_table_generator+0x76>
 17c:	e2 e9       	ldi	r30, 0x92	; 146
 17e:	f1 e0       	ldi	r31, 0x01	; 1
 180:	84 e6       	ldi	r24, 0x64	; 100
 182:	90 e0       	ldi	r25, 0x00	; 0
	}
	
	k = 0;
	for(int i = 65; i < 105; i++)
	{
		distance_table[i] = 100 - k;
 184:	81 93       	st	Z+, r24
 186:	91 93       	st	Z+, r25
 188:	01 97       	sbiw	r24, 0x01	; 1
		distance_table[i] = 140 - k*2;
		k = k + 1;
	}
	
	k = 0;
	for(int i = 65; i < 105; i++)
 18a:	8c 33       	cpi	r24, 0x3C	; 60
 18c:	91 05       	cpc	r25, r1
 18e:	d1 f7       	brne	.-12     	; 0x184 <distance_table_generator+0x8a>
 190:	1e c0       	rjmp	.+60     	; 0x1ce <distance_table_generator+0xd4>
	
	k = 0;
	
	for (int i = 105; i < 150; i++)
	{
		distance_table[i] = 60 - k;
 192:	9b 01       	movw	r18, r22
 194:	24 1b       	sub	r18, r20
 196:	35 0b       	sbc	r19, r21
 198:	21 93       	st	Z+, r18
 19a:	31 93       	st	Z+, r19
		
		if ((i/2)*2 == i){
 19c:	9c 01       	movw	r18, r24
 19e:	99 23       	and	r25, r25
 1a0:	14 f4       	brge	.+4      	; 0x1a6 <distance_table_generator+0xac>
 1a2:	2f 5f       	subi	r18, 0xFF	; 255
 1a4:	3f 4f       	sbci	r19, 0xFF	; 255
 1a6:	2e 7f       	andi	r18, 0xFE	; 254
 1a8:	28 17       	cp	r18, r24
 1aa:	39 07       	cpc	r19, r25
 1ac:	11 f4       	brne	.+4      	; 0x1b2 <distance_table_generator+0xb8>
			k = k + 1;
 1ae:	4f 5f       	subi	r20, 0xFF	; 255
 1b0:	5f 4f       	sbci	r21, 0xFF	; 255
		k = k + 1;
	}
	
	k = 0;
	
	for (int i = 105; i < 150; i++)
 1b2:	01 96       	adiw	r24, 0x01	; 1
 1b4:	86 39       	cpi	r24, 0x96	; 150
 1b6:	91 05       	cpc	r25, r1
 1b8:	61 f7       	brne	.-40     	; 0x192 <distance_table_generator+0x98>
 1ba:	ec e3       	ldi	r30, 0x3C	; 60
 1bc:	f2 e0       	ldi	r31, 0x02	; 2
 1be:	8e e0       	ldi	r24, 0x0E	; 14
 1c0:	93 e0       	ldi	r25, 0x03	; 3
		}
	}
	
	for (int i = 150; i < 255; i++)
	{
		distance_table[i] = 0;
 1c2:	11 92       	st	Z+, r1
 1c4:	11 92       	st	Z+, r1
		if ((i/2)*2 == i){
			k = k + 1;
		}
	}
	
	for (int i = 150; i < 255; i++)
 1c6:	e8 17       	cp	r30, r24
 1c8:	f9 07       	cpc	r31, r25
 1ca:	d9 f7       	brne	.-10     	; 0x1c2 <distance_table_generator+0xc8>
 1cc:	08 95       	ret
	
	k = 0;
	
	for (int i = 105; i < 150; i++)
	{
		distance_table[i] = 60 - k;
 1ce:	8c e3       	ldi	r24, 0x3C	; 60
 1d0:	90 e0       	ldi	r25, 0x00	; 0
 1d2:	90 93 e3 01 	sts	0x01E3, r25
 1d6:	80 93 e2 01 	sts	0x01E2, r24
 1da:	e4 ee       	ldi	r30, 0xE4	; 228
 1dc:	f1 e0       	ldi	r31, 0x01	; 1
 1de:	89 e6       	ldi	r24, 0x69	; 105
 1e0:	90 e0       	ldi	r25, 0x00	; 0
 1e2:	40 e0       	ldi	r20, 0x00	; 0
 1e4:	50 e0       	ldi	r21, 0x00	; 0
 1e6:	6c e3       	ldi	r22, 0x3C	; 60
 1e8:	70 e0       	ldi	r23, 0x00	; 0
 1ea:	e3 cf       	rjmp	.-58     	; 0x1b2 <distance_table_generator+0xb8>

000001ec <angle_generator>:
{
	int angle;
	double length_quotient;
	double length_difference;
	
	length_difference = front - back;
 1ec:	68 1b       	sub	r22, r24
 1ee:	79 0b       	sbc	r23, r25
 1f0:	88 27       	eor	r24, r24
 1f2:	77 fd       	sbrc	r23, 7
 1f4:	80 95       	com	r24
 1f6:	98 2f       	mov	r25, r24
 1f8:	7c d2       	rcall	.+1272   	; 0x6f2 <__floatsisf>
	length_quotient= length_difference/130; //130 är avståndet mellan sensorerna
 1fa:	20 e0       	ldi	r18, 0x00	; 0
 1fc:	30 e0       	ldi	r19, 0x00	; 0
 1fe:	42 e0       	ldi	r20, 0x02	; 2
 200:	53 e4       	ldi	r21, 0x43	; 67
 202:	dc d1       	rcall	.+952    	; 0x5bc <__divsf3>
	angle = atan(length_quotient) * 180/M_PI;
 204:	b0 d1       	rcall	.+864    	; 0x566 <atan>
 206:	20 e0       	ldi	r18, 0x00	; 0
 208:	30 e0       	ldi	r19, 0x00	; 0
 20a:	44 e3       	ldi	r20, 0x34	; 52
 20c:	53 e4       	ldi	r21, 0x43	; 67
 20e:	62 d3       	rcall	.+1732   	; 0x8d4 <__mulsf3>
 210:	2b ed       	ldi	r18, 0xDB	; 219
 212:	3f e0       	ldi	r19, 0x0F	; 15
 214:	49 e4       	ldi	r20, 0x49	; 73
 216:	50 e4       	ldi	r21, 0x40	; 64
 218:	d1 d1       	rcall	.+930    	; 0x5bc <__divsf3>
 21a:	38 d2       	rcall	.+1136   	; 0x68c <__fixsfsi>
	return angle;
}
 21c:	cb 01       	movw	r24, r22
 21e:	08 95       	ret

00000220 <offset_generator>:

int offset_generator(int angle, int back, int front)
{
 220:	cf 92       	push	r12
 222:	df 92       	push	r13
 224:	ef 92       	push	r14
 226:	ff 92       	push	r15
 228:	0f 93       	push	r16
 22a:	1f 93       	push	r17
 22c:	cf 93       	push	r28
 22e:	df 93       	push	r29
 230:	eb 01       	movw	r28, r22
 232:	8a 01       	movw	r16, r20
	int hyp;
	int cath;
	
	hyp = (front + back)/2 + 80; //100 är avståndet mellan sensorerna
	cath = hyp * cos(angle*M_PI/180);
 234:	bc 01       	movw	r22, r24
 236:	88 27       	eor	r24, r24
 238:	77 fd       	sbrc	r23, 7
 23a:	80 95       	com	r24
 23c:	98 2f       	mov	r25, r24
 23e:	59 d2       	rcall	.+1202   	; 0x6f2 <__floatsisf>
 240:	2b ed       	ldi	r18, 0xDB	; 219
 242:	3f e0       	ldi	r19, 0x0F	; 15
 244:	49 e4       	ldi	r20, 0x49	; 73
 246:	50 e4       	ldi	r21, 0x40	; 64
 248:	45 d3       	rcall	.+1674   	; 0x8d4 <__mulsf3>
 24a:	20 e0       	ldi	r18, 0x00	; 0
 24c:	30 e0       	ldi	r19, 0x00	; 0
 24e:	44 e3       	ldi	r20, 0x34	; 52
 250:	53 e4       	ldi	r21, 0x43	; 67
 252:	b4 d1       	rcall	.+872    	; 0x5bc <__divsf3>
 254:	b0 d1       	rcall	.+864    	; 0x5b6 <cos>
 256:	6b 01       	movw	r12, r22
 258:	7c 01       	movw	r14, r24
int offset_generator(int angle, int back, int front)
{
	int hyp;
	int cath;
	
	hyp = (front + back)/2 + 80; //100 är avståndet mellan sensorerna
 25a:	b8 01       	movw	r22, r16
 25c:	6c 0f       	add	r22, r28
 25e:	7d 1f       	adc	r23, r29
 260:	77 23       	and	r23, r23
 262:	14 f4       	brge	.+4      	; 0x268 <offset_generator+0x48>
 264:	6f 5f       	subi	r22, 0xFF	; 255
 266:	7f 4f       	sbci	r23, 0xFF	; 255
 268:	75 95       	asr	r23
 26a:	67 95       	ror	r22
 26c:	60 5b       	subi	r22, 0xB0	; 176
 26e:	7f 4f       	sbci	r23, 0xFF	; 255
	cath = hyp * cos(angle*M_PI/180);
 270:	88 27       	eor	r24, r24
 272:	77 fd       	sbrc	r23, 7
 274:	80 95       	com	r24
 276:	98 2f       	mov	r25, r24
 278:	3c d2       	rcall	.+1144   	; 0x6f2 <__floatsisf>
 27a:	a7 01       	movw	r20, r14
 27c:	96 01       	movw	r18, r12
 27e:	2a d3       	rcall	.+1620   	; 0x8d4 <__mulsf3>
 280:	05 d2       	rcall	.+1034   	; 0x68c <__fixsfsi>
	
	return cath/10;
 282:	cb 01       	movw	r24, r22
 284:	6a e0       	ldi	r22, 0x0A	; 10
 286:	70 e0       	ldi	r23, 0x00	; 0
 288:	0a d4       	rcall	.+2068   	; 0xa9e <__divmodhi4>
 28a:	cb 01       	movw	r24, r22
}
 28c:	df 91       	pop	r29
 28e:	cf 91       	pop	r28
 290:	1f 91       	pop	r17
 292:	0f 91       	pop	r16
 294:	ff 90       	pop	r15
 296:	ef 90       	pop	r14
 298:	df 90       	pop	r13
 29a:	cf 90       	pop	r12
 29c:	08 95       	ret

0000029e <main>:
	int wall_reflex_information;
	int reflex_bool;
	int left_wall_counter;
	int right_wall_counter;
	
	distance_table_generator(); //Skapa avståndstabellen
 29e:	2d df       	rcall	.-422    	; 0xfa <distance_table_generator>
	
	DDRB = 255;//Sätt Port B till utgång
 2a0:	8f ef       	ldi	r24, 0xFF	; 255
 2a2:	84 b9       	out	0x04, r24	; 4
	DDRA = 0; //Sätt Port A till ingång (default)
 2a4:	11 b8       	out	0x01, r1	; 1
	sei(); //Aktiverar globala avbrott
 2a6:	78 94       	sei
	ADCSRA = 143; //Aktivera ADC, ADC-interrupt, Sätt division factor till 128. 20 MHz/128 = 156,25 kHz
 2a8:	8f e8       	ldi	r24, 0x8F	; 143
 2aa:	80 93 7a 00 	sts	0x007A, r24
		
	while(1)
	{
		
//_________________________________________Avläsning________________________________________
		for(int i = 0; i < 8; i++)
 2ae:	80 e0       	ldi	r24, 0x00	; 0
 2b0:	90 e0       	ldi	r25, 0x00	; 0

//_______________________________________Offset och angle______________________________________
		//Välj den sida som är närmast väggen - den är mest noggrann!
		//Är höger < vänster? Använd isf höger och vice versa.
		
		if((sensor_data[3] + sensor_data[4]) < (sensor_data[0]+sensor_data[1])) 
 2b2:	0f 2e       	mov	r0, r31
 2b4:	f6 e0       	ldi	r31, 0x06	; 6
 2b6:	6f 2e       	mov	r6, r31
 2b8:	f1 e0       	ldi	r31, 0x01	; 1
 2ba:	7f 2e       	mov	r7, r31
 2bc:	f0 2d       	mov	r31, r0
 2be:	0f 2e       	mov	r0, r31
 2c0:	f2 e0       	ldi	r31, 0x02	; 2
 2c2:	2f 2e       	mov	r2, r31
 2c4:	f1 e0       	ldi	r31, 0x01	; 1
 2c6:	3f 2e       	mov	r3, r31
 2c8:	f0 2d       	mov	r31, r0
		
	while(1)
	{
		
//_________________________________________Avläsning________________________________________
		for(int i = 0; i < 8; i++)
 2ca:	41 2c       	mov	r4, r1
 2cc:	51 2c       	mov	r5, r1
		{
			ADMUX = 32 + i; //Öka admux, sätt ADLAR (bit 5 = 32)
			ADCSRA |= (1<<6); //Börja ADC
 2ce:	ca e7       	ldi	r28, 0x7A	; 122
 2d0:	d0 e0       	ldi	r29, 0x00	; 0
 2d2:	0c c0       	rjmp	.+24     	; 0x2ec <main+0x4e>
	{
		
//_________________________________________Avläsning________________________________________
		for(int i = 0; i < 8; i++)
		{
			ADMUX = 32 + i; //Öka admux, sätt ADLAR (bit 5 = 32)
 2d4:	20 e2       	ldi	r18, 0x20	; 32
 2d6:	28 0f       	add	r18, r24
 2d8:	ac e7       	ldi	r26, 0x7C	; 124
 2da:	b0 e0       	ldi	r27, 0x00	; 0
 2dc:	2c 93       	st	X, r18
			ADCSRA |= (1<<6); //Börja ADC
 2de:	28 81       	ld	r18, Y
 2e0:	20 64       	ori	r18, 0x40	; 64
 2e2:	28 83       	st	Y, r18
			
		while(ADCSRA & 1<<ADSC)
 2e4:	28 81       	ld	r18, Y
 2e6:	26 fd       	sbrc	r18, 6
 2e8:	fd cf       	rjmp	.-6      	; 0x2e4 <main+0x46>
		
	while(1)
	{
		
//_________________________________________Avläsning________________________________________
		for(int i = 0; i < 8; i++)
 2ea:	01 96       	adiw	r24, 0x01	; 1
 2ec:	88 30       	cpi	r24, 0x08	; 8
 2ee:	91 05       	cpc	r25, r1
 2f0:	8c f3       	brlt	.-30     	; 0x2d4 <main+0x36>

//_______________________________________Offset och angle______________________________________
		//Välj den sida som är närmast väggen - den är mest noggrann!
		//Är höger < vänster? Använd isf höger och vice versa.
		
		if((sensor_data[3] + sensor_data[4]) < (sensor_data[0]+sensor_data[1])) 
 2f2:	f3 01       	movw	r30, r6
 2f4:	e0 80       	ld	r14, Z
 2f6:	f1 80       	ldd	r15, Z+1	; 0x01
 2f8:	a8 e0       	ldi	r26, 0x08	; 8
 2fa:	b1 e0       	ldi	r27, 0x01	; 1
 2fc:	cd 90       	ld	r12, X+
 2fe:	dc 90       	ld	r13, X
 300:	e0 e0       	ldi	r30, 0x00	; 0
 302:	f1 e0       	ldi	r31, 0x01	; 1
 304:	a0 80       	ld	r10, Z
 306:	b1 80       	ldd	r11, Z+1	; 0x01
 308:	d1 01       	movw	r26, r2
 30a:	0d 91       	ld	r16, X+
 30c:	1c 91       	ld	r17, X
 30e:	97 01       	movw	r18, r14
 310:	2c 0d       	add	r18, r12
 312:	3d 1d       	adc	r19, r13
 314:	c5 01       	movw	r24, r10
 316:	80 0f       	add	r24, r16
 318:	91 1f       	adc	r25, r17
 31a:	28 17       	cp	r18, r24
 31c:	39 07       	cpc	r19, r25
 31e:	6c f4       	brge	.+26     	; 0x33a <main+0x9c>
			{
				angle= angle_generator(sensor_data[3],sensor_data[4]);
 320:	b6 01       	movw	r22, r12
 322:	c7 01       	movw	r24, r14
 324:	63 df       	rcall	.-314    	; 0x1ec <angle_generator>
 326:	4c 01       	movw	r8, r24
				offset = 40 - offset_generator(angle,sensor_data[3],sensor_data[4]);
 328:	a6 01       	movw	r20, r12
 32a:	b7 01       	movw	r22, r14
 32c:	79 df       	rcall	.-270    	; 0x220 <offset_generator>
 32e:	e8 e2       	ldi	r30, 0x28	; 40
 330:	f0 e0       	ldi	r31, 0x00	; 0
 332:	e8 1b       	sub	r30, r24
 334:	f9 0b       	sbc	r31, r25
 336:	cf 01       	movw	r24, r30
 338:	07 c0       	rjmp	.+14     	; 0x348 <main+0xaa>
			}
		else
			{
				angle= angle_generator(sensor_data[0],sensor_data[1]);
 33a:	b8 01       	movw	r22, r16
 33c:	c5 01       	movw	r24, r10
 33e:	56 df       	rcall	.-340    	; 0x1ec <angle_generator>
 340:	4c 01       	movw	r8, r24
				offset = offset_generator(angle,sensor_data[0],sensor_data[1]);
 342:	a8 01       	movw	r20, r16
 344:	b5 01       	movw	r22, r10
 346:	6c df       	rcall	.-296    	; 0x220 <offset_generator>
		
//_________________________________________Frontsensor________________________________________
		//Dividera resultatet med 10 för att det ska bli centimeter
		//Detta är för att vi bara kan beskriva högst 127 mm annars blir det tvåkomplement
		//NEJ! VI SKICKAR I MILLIMETER VI SKITER I JÄVLA 2KOMP 
		front_sensor = sensor_data[6];
 348:	ac e0       	ldi	r26, 0x0C	; 12
 34a:	b1 e0       	ldi	r27, 0x01	; 1
 34c:	ed 91       	ld	r30, X+
 34e:	fc 91       	ld	r31, X
				
//_________________________________________Reflexsensor________________________________________
		if((sensor_data[7] > 127))
 350:	51 e0       	ldi	r21, 0x01	; 1
 352:	40 e0       	ldi	r20, 0x00	; 0
 354:	ae e0       	ldi	r26, 0x0E	; 14
 356:	b1 e0       	ldi	r27, 0x01	; 1
 358:	2d 91       	ld	r18, X+
 35a:	3c 91       	ld	r19, X
 35c:	20 38       	cpi	r18, 0x80	; 128
 35e:	31 05       	cpc	r19, r1
 360:	14 f4       	brge	.+4      	; 0x366 <main+0xc8>
 362:	54 2d       	mov	r21, r4
 364:	45 2d       	mov	r20, r5
			reflex_bool = 1;
 366:	65 2f       	mov	r22, r21
 368:	74 2f       	mov	r23, r20
//_________________________________________Lång sensor________________________________________
		//Om kort inte detekterar ett avstånd - läs av lång sensor.
		//Skicka ut hur många väggar vi ser från tabell.

		
		PORTB = sensor_data[0];
 36a:	a5 b8       	out	0x05, r10	; 5
		PORTB = sensor_data[1];
 36c:	d1 01       	movw	r26, r2
 36e:	2c 91       	ld	r18, X
 370:	25 b9       	out	0x05, r18	; 5
		PORTB = sensor_data[2];
 372:	a4 e0       	ldi	r26, 0x04	; 4
 374:	b1 e0       	ldi	r27, 0x01	; 1
 376:	2c 91       	ld	r18, X
 378:	25 b9       	out	0x05, r18	; 5
			//Vänster långsensor
			if (sensor_data[0] > 170|| sensor_data[1] > 170)
 37a:	a0 e0       	ldi	r26, 0x00	; 0
 37c:	b1 e0       	ldi	r27, 0x01	; 1
 37e:	2d 91       	ld	r18, X+
 380:	3c 91       	ld	r19, X
 382:	2b 3a       	cpi	r18, 0xAB	; 171
 384:	31 05       	cpc	r19, r1
 386:	34 f4       	brge	.+12     	; 0x394 <main+0xf6>
 388:	d1 01       	movw	r26, r2
 38a:	2d 91       	ld	r18, X+
 38c:	3c 91       	ld	r19, X
 38e:	2b 3a       	cpi	r18, 0xAB	; 171
 390:	31 05       	cpc	r19, r1
 392:	ac f0       	brlt	.+42     	; 0x3be <main+0x120>
			{			
				if(sensor_data[2] > 51) 
 394:	a4 e0       	ldi	r26, 0x04	; 4
 396:	b1 e0       	ldi	r27, 0x01	; 1
 398:	2d 91       	ld	r18, X+
 39a:	3c 91       	ld	r19, X
 39c:	24 33       	cpi	r18, 0x34	; 52
 39e:	31 05       	cpc	r19, r1
 3a0:	8c f4       	brge	.+34     	; 0x3c4 <main+0x126>
					left_wall_counter = 0;
				else if(50 > sensor_data[2] && sensor_data[2] > 40) 
 3a2:	a9 01       	movw	r20, r18
 3a4:	49 52       	subi	r20, 0x29	; 41
 3a6:	51 09       	sbc	r21, r1
 3a8:	49 30       	cpi	r20, 0x09	; 9
 3aa:	51 05       	cpc	r21, r1
 3ac:	70 f0       	brcs	.+28     	; 0x3ca <main+0x12c>
					left_wall_counter = 1;
				else if (40 > sensor_data[2] && sensor_data[2] > 22)
 3ae:	27 51       	subi	r18, 0x17	; 23
 3b0:	31 09       	sbc	r19, r1
 3b2:	21 31       	cpi	r18, 0x11	; 17
 3b4:	31 05       	cpc	r19, r1
 3b6:	60 f4       	brcc	.+24     	; 0x3d0 <main+0x132>
					left_wall_counter = 2;
 3b8:	42 e0       	ldi	r20, 0x02	; 2
 3ba:	50 e0       	ldi	r21, 0x00	; 0
 3bc:	0b c0       	rjmp	.+22     	; 0x3d4 <main+0x136>
				else
					left_wall_counter = 3;	
			}
			else
				{
					left_wall_counter = 0;
 3be:	44 2d       	mov	r20, r4
 3c0:	55 2d       	mov	r21, r5
 3c2:	08 c0       	rjmp	.+16     	; 0x3d4 <main+0x136>
		PORTB = sensor_data[2];
			//Vänster långsensor
			if (sensor_data[0] > 170|| sensor_data[1] > 170)
			{			
				if(sensor_data[2] > 51) 
					left_wall_counter = 0;
 3c4:	44 2d       	mov	r20, r4
 3c6:	55 2d       	mov	r21, r5
 3c8:	05 c0       	rjmp	.+10     	; 0x3d4 <main+0x136>
				else if(50 > sensor_data[2] && sensor_data[2] > 40) 
					left_wall_counter = 1;
 3ca:	41 e0       	ldi	r20, 0x01	; 1
 3cc:	50 e0       	ldi	r21, 0x00	; 0
 3ce:	02 c0       	rjmp	.+4      	; 0x3d4 <main+0x136>
				else if (40 > sensor_data[2] && sensor_data[2] > 22)
					left_wall_counter = 2;
				else
					left_wall_counter = 3;	
 3d0:	43 e0       	ldi	r20, 0x03	; 3
 3d2:	50 e0       	ldi	r21, 0x00	; 0
			else
				{
					left_wall_counter = 0;
				}

		PORTB = left_wall_counter;
 3d4:	45 b9       	out	0x05, r20	; 5
		PORTB = sensor_data[3];
 3d6:	d3 01       	movw	r26, r6
 3d8:	2c 91       	ld	r18, X
 3da:	25 b9       	out	0x05, r18	; 5
		PORTB = sensor_data[4];
 3dc:	a8 e0       	ldi	r26, 0x08	; 8
 3de:	b1 e0       	ldi	r27, 0x01	; 1
 3e0:	2c 91       	ld	r18, X
 3e2:	25 b9       	out	0x05, r18	; 5
		PORTB = sensor_data[5];
 3e4:	aa e0       	ldi	r26, 0x0A	; 10
 3e6:	b1 e0       	ldi	r27, 0x01	; 1
 3e8:	2c 91       	ld	r18, X
 3ea:	25 b9       	out	0x05, r18	; 5
			if(sensor_data[3] > 170|| sensor_data[4] > 170){
 3ec:	d3 01       	movw	r26, r6
 3ee:	2d 91       	ld	r18, X+
 3f0:	3c 91       	ld	r19, X
 3f2:	2b 3a       	cpi	r18, 0xAB	; 171
 3f4:	31 05       	cpc	r19, r1
 3f6:	3c f4       	brge	.+14     	; 0x406 <main+0x168>
 3f8:	a8 e0       	ldi	r26, 0x08	; 8
 3fa:	b1 e0       	ldi	r27, 0x01	; 1
 3fc:	2d 91       	ld	r18, X+
 3fe:	3c 91       	ld	r19, X
 400:	2b 3a       	cpi	r18, 0xAB	; 171
 402:	31 05       	cpc	r19, r1
 404:	9c f0       	brlt	.+38     	; 0x42c <main+0x18e>
				
			if(sensor_data[5] > 51)
 406:	aa e0       	ldi	r26, 0x0A	; 10
 408:	b1 e0       	ldi	r27, 0x01	; 1
 40a:	2d 91       	ld	r18, X+
 40c:	3c 91       	ld	r19, X
 40e:	24 33       	cpi	r18, 0x34	; 52
 410:	31 05       	cpc	r19, r1
 412:	7c f4       	brge	.+30     	; 0x432 <main+0x194>
				right_wall_counter = 0;
			else if(50 > sensor_data[5] && sensor_data[5] > 40)
 414:	d9 01       	movw	r26, r18
 416:	99 97       	sbiw	r26, 0x29	; 41
 418:	19 97       	sbiw	r26, 0x09	; 9
 41a:	70 f0       	brcs	.+28     	; 0x438 <main+0x19a>
				right_wall_counter = 1;
			else if (40 > sensor_data[5] && sensor_data[5] > 22)
 41c:	27 51       	subi	r18, 0x17	; 23
 41e:	31 09       	sbc	r19, r1
 420:	21 31       	cpi	r18, 0x11	; 17
 422:	31 05       	cpc	r19, r1
 424:	60 f4       	brcc	.+24     	; 0x43e <main+0x1a0>
				right_wall_counter = 2;
 426:	22 e0       	ldi	r18, 0x02	; 2
 428:	30 e0       	ldi	r19, 0x00	; 0
 42a:	0b c0       	rjmp	.+22     	; 0x442 <main+0x1a4>
			else
				right_wall_counter = 3;
			}
			else
			{
				right_wall_counter = 0;
 42c:	24 2d       	mov	r18, r4
 42e:	35 2d       	mov	r19, r5
 430:	08 c0       	rjmp	.+16     	; 0x442 <main+0x1a4>
		PORTB = sensor_data[4];
		PORTB = sensor_data[5];
			if(sensor_data[3] > 170|| sensor_data[4] > 170){
				
			if(sensor_data[5] > 51)
				right_wall_counter = 0;
 432:	24 2d       	mov	r18, r4
 434:	35 2d       	mov	r19, r5
 436:	05 c0       	rjmp	.+10     	; 0x442 <main+0x1a4>
			else if(50 > sensor_data[5] && sensor_data[5] > 40)
				right_wall_counter = 1;
 438:	21 e0       	ldi	r18, 0x01	; 1
 43a:	30 e0       	ldi	r19, 0x00	; 0
 43c:	02 c0       	rjmp	.+4      	; 0x442 <main+0x1a4>
			else if (40 > sensor_data[5] && sensor_data[5] > 22)
				right_wall_counter = 2;
			else
				right_wall_counter = 3;
 43e:	23 e0       	ldi	r18, 0x03	; 3
 440:	30 e0       	ldi	r19, 0x00	; 0
			else
			{
				right_wall_counter = 0;
			}
			
		PORTB = right_wall_counter;
 442:	25 b9       	out	0x05, r18	; 5
		PORTB = sensor_data[6];
 444:	ac e0       	ldi	r26, 0x0C	; 12
 446:	b1 e0       	ldi	r27, 0x01	; 1
 448:	1c 91       	ld	r17, X
 44a:	15 b9       	out	0x05, r17	; 5
		//För avläsning - and:a bort de ointressanta bitarna och dividera med rätt faktor.
		
		wall_reflex_information = ( (reflex_bool * 64) + (left_wall_counter * 8) + (right_wall_counter) );
			
		//Förhindra avbrott under uppdateringen - höj avbrottsnivån så inga bussavbrott kommer.
		cli();
 44c:	f8 94       	cli
		send_buffer[0] = angle;
 44e:	ae e0       	ldi	r26, 0x0E	; 14
 450:	b3 e0       	ldi	r27, 0x03	; 3
 452:	8d 92       	st	X+, r8
 454:	9c 92       	st	X, r9
		send_buffer[1] = offset;
 456:	a0 e1       	ldi	r26, 0x10	; 16
 458:	b3 e0       	ldi	r27, 0x03	; 3
 45a:	8d 93       	st	X+, r24
 45c:	9c 93       	st	X, r25
		send_buffer[2] = front_sensor;
 45e:	a2 e1       	ldi	r26, 0x12	; 18
 460:	b3 e0       	ldi	r27, 0x03	; 3
 462:	ed 93       	st	X+, r30
 464:	fc 93       	st	X, r31
//_________________________________________Uppdatera buffer________________________________________
		//Samla ihop väggarna och reflexen i en binär talföljd. Lägg reflex_bool på 7 biten
		//Lägg vänster vägg på 4 och 5 biten, lägg höger vägg på 1 och 2 biten.
		//För avläsning - and:a bort de ointressanta bitarna och dividera med rätt faktor.
		
		wall_reflex_information = ( (reflex_bool * 64) + (left_wall_counter * 8) + (right_wall_counter) );
 466:	66 0f       	add	r22, r22
 468:	77 1f       	adc	r23, r23
 46a:	66 0f       	add	r22, r22
 46c:	77 1f       	adc	r23, r23
 46e:	66 0f       	add	r22, r22
 470:	77 1f       	adc	r23, r23
 472:	46 0f       	add	r20, r22
 474:	57 1f       	adc	r21, r23
 476:	44 0f       	add	r20, r20
 478:	55 1f       	adc	r21, r21
 47a:	44 0f       	add	r20, r20
 47c:	55 1f       	adc	r21, r21
 47e:	44 0f       	add	r20, r20
 480:	55 1f       	adc	r21, r21
 482:	24 0f       	add	r18, r20
 484:	35 1f       	adc	r19, r21
		//Förhindra avbrott under uppdateringen - höj avbrottsnivån så inga bussavbrott kommer.
		cli();
		send_buffer[0] = angle;
		send_buffer[1] = offset;
		send_buffer[2] = front_sensor;
		send_buffer[3] = wall_reflex_information;
 486:	e4 e1       	ldi	r30, 0x14	; 20
 488:	f3 e0       	ldi	r31, 0x03	; 3
 48a:	31 83       	std	Z+1, r19	; 0x01
 48c:	20 83       	st	Z, r18
		//Lägg send buffer på rätt ställe för Måns funktion
		sei();
 48e:	78 94       	sei
		
		PORTB=send_buffer[0];	
 490:	ae e0       	ldi	r26, 0x0E	; 14
 492:	b3 e0       	ldi	r27, 0x03	; 3
 494:	8c 91       	ld	r24, X
 496:	85 b9       	out	0x05, r24	; 5
		PORTB=send_buffer[1];
 498:	e0 e1       	ldi	r30, 0x10	; 16
 49a:	f3 e0       	ldi	r31, 0x03	; 3
 49c:	80 81       	ld	r24, Z
 49e:	85 b9       	out	0x05, r24	; 5
		PORTB=send_buffer[2];
 4a0:	a2 e1       	ldi	r26, 0x12	; 18
 4a2:	b3 e0       	ldi	r27, 0x03	; 3
 4a4:	8c 91       	ld	r24, X
 4a6:	85 b9       	out	0x05, r24	; 5
		PORTB=send_buffer[3];
 4a8:	e4 e1       	ldi	r30, 0x14	; 20
 4aa:	f3 e0       	ldi	r31, 0x03	; 3
 4ac:	80 81       	ld	r24, Z
 4ae:	85 b9       	out	0x05, r24	; 5
	#else
		//round up by default
		__ticks_dc = (uint32_t)(ceil(fabs(__tmp)));
	#endif

	__builtin_avr_delay_cycles(__ticks_dc);
 4b0:	ff ef       	ldi	r31, 0xFF	; 255
 4b2:	28 e0       	ldi	r18, 0x08	; 8
 4b4:	3d e3       	ldi	r19, 0x3D	; 61
 4b6:	f1 50       	subi	r31, 0x01	; 1
 4b8:	20 40       	sbci	r18, 0x00	; 0
 4ba:	30 40       	sbci	r19, 0x00	; 0
 4bc:	e1 f7       	brne	.-8      	; 0x4b6 <main+0x218>
 4be:	00 c0       	rjmp	.+0      	; 0x4c0 <main+0x222>
 4c0:	00 00       	nop
		
	while(1)
	{
		
//_________________________________________Avläsning________________________________________
		for(int i = 0; i < 8; i++)
 4c2:	84 2d       	mov	r24, r4
 4c4:	95 2d       	mov	r25, r5
 4c6:	12 cf       	rjmp	.-476    	; 0x2ec <main+0x4e>

000004c8 <__vector_24>:
		_delay_ms(1000);
	}			
}

ISR(ADC_vect)
{
 4c8:	1f 92       	push	r1
 4ca:	0f 92       	push	r0
 4cc:	0f b6       	in	r0, 0x3f	; 63
 4ce:	0f 92       	push	r0
 4d0:	11 24       	eor	r1, r1
 4d2:	0b b6       	in	r0, 0x3b	; 59
 4d4:	0f 92       	push	r0
 4d6:	8f 93       	push	r24
 4d8:	9f 93       	push	r25
 4da:	af 93       	push	r26
 4dc:	bf 93       	push	r27
 4de:	ef 93       	push	r30
 4e0:	ff 93       	push	r31
	if ( (ADMUX-32 == 7) || (ADMUX-32 == 2) || (ADMUX-32 == 5) ){
 4e2:	80 91 7c 00 	lds	r24, 0x007C
 4e6:	87 32       	cpi	r24, 0x27	; 39
 4e8:	41 f0       	breq	.+16     	; 0x4fa <__vector_24+0x32>
 4ea:	80 91 7c 00 	lds	r24, 0x007C
 4ee:	82 32       	cpi	r24, 0x22	; 34
 4f0:	21 f0       	breq	.+8      	; 0x4fa <__vector_24+0x32>
 4f2:	80 91 7c 00 	lds	r24, 0x007C
 4f6:	85 32       	cpi	r24, 0x25	; 37
 4f8:	69 f4       	brne	.+26     	; 0x514 <__vector_24+0x4c>
	sensor_data[ADMUX-32] = ADCH; // Ifall det är långa sensorn eller reflex ska den inte konverteras.
 4fa:	e0 91 7c 00 	lds	r30, 0x007C
 4fe:	80 91 79 00 	lds	r24, 0x0079
 502:	f0 e0       	ldi	r31, 0x00	; 0
 504:	ee 0f       	add	r30, r30
 506:	ff 1f       	adc	r31, r31
 508:	e0 54       	subi	r30, 0x40	; 64
 50a:	ff 4f       	sbci	r31, 0xFF	; 255
 50c:	90 e0       	ldi	r25, 0x00	; 0
 50e:	91 83       	std	Z+1, r25	; 0x01
 510:	80 83       	st	Z, r24
 512:	12 c0       	rjmp	.+36     	; 0x538 <__vector_24+0x70>
	}
	else
	{
	sensor_data[ADMUX-32] = distance_table[ADCH];
 514:	e0 91 7c 00 	lds	r30, 0x007C
 518:	a0 91 79 00 	lds	r26, 0x0079
 51c:	f0 e0       	ldi	r31, 0x00	; 0
 51e:	ee 0f       	add	r30, r30
 520:	ff 1f       	adc	r31, r31
 522:	e0 54       	subi	r30, 0x40	; 64
 524:	ff 4f       	sbci	r31, 0xFF	; 255
 526:	b0 e0       	ldi	r27, 0x00	; 0
 528:	aa 0f       	add	r26, r26
 52a:	bb 1f       	adc	r27, r27
 52c:	a0 5f       	subi	r26, 0xF0	; 240
 52e:	be 4f       	sbci	r27, 0xFE	; 254
 530:	8d 91       	ld	r24, X+
 532:	9c 91       	ld	r25, X
 534:	91 83       	std	Z+1, r25	; 0x01
 536:	80 83       	st	Z, r24
	}	
		
}
 538:	ff 91       	pop	r31
 53a:	ef 91       	pop	r30
 53c:	bf 91       	pop	r27
 53e:	af 91       	pop	r26
 540:	9f 91       	pop	r25
 542:	8f 91       	pop	r24
 544:	0f 90       	pop	r0
 546:	0b be       	out	0x3b, r0	; 59
 548:	0f 90       	pop	r0
 54a:	0f be       	out	0x3f, r0	; 63
 54c:	0f 90       	pop	r0
 54e:	1f 90       	pop	r1
 550:	18 95       	reti

00000552 <__vector_19>:


ISR(SPI_STC_vect)
{
 552:	1f 92       	push	r1
 554:	0f 92       	push	r0
 556:	0f b6       	in	r0, 0x3f	; 63
 558:	0f 92       	push	r0
 55a:	11 24       	eor	r1, r1
	//Måns funktion startas
}
 55c:	0f 90       	pop	r0
 55e:	0f be       	out	0x3f, r0	; 63
 560:	0f 90       	pop	r0
 562:	1f 90       	pop	r1
 564:	18 95       	reti

00000566 <atan>:
 566:	df 93       	push	r29
 568:	dd 27       	eor	r29, r29
 56a:	b9 2f       	mov	r27, r25
 56c:	bf 77       	andi	r27, 0x7F	; 127
 56e:	40 e8       	ldi	r20, 0x80	; 128
 570:	5f e3       	ldi	r21, 0x3F	; 63
 572:	16 16       	cp	r1, r22
 574:	17 06       	cpc	r1, r23
 576:	48 07       	cpc	r20, r24
 578:	5b 07       	cpc	r21, r27
 57a:	10 f4       	brcc	.+4      	; 0x580 <atan+0x1a>
 57c:	d9 2f       	mov	r29, r25
 57e:	a3 d1       	rcall	.+838    	; 0x8c6 <inverse>
 580:	9f 93       	push	r25
 582:	8f 93       	push	r24
 584:	7f 93       	push	r23
 586:	6f 93       	push	r22
 588:	08 d2       	rcall	.+1040   	; 0x99a <square>
 58a:	ec e8       	ldi	r30, 0x8C	; 140
 58c:	f0 e0       	ldi	r31, 0x00	; 0
 58e:	f5 d0       	rcall	.+490    	; 0x77a <__fp_powser>
 590:	4f d1       	rcall	.+670    	; 0x830 <__fp_round>
 592:	2f 91       	pop	r18
 594:	3f 91       	pop	r19
 596:	4f 91       	pop	r20
 598:	5f 91       	pop	r21
 59a:	a8 d1       	rcall	.+848    	; 0x8ec <__mulsf3x>
 59c:	dd 23       	and	r29, r29
 59e:	49 f0       	breq	.+18     	; 0x5b2 <atan+0x4c>
 5a0:	90 58       	subi	r25, 0x80	; 128
 5a2:	a2 ea       	ldi	r26, 0xA2	; 162
 5a4:	2a ed       	ldi	r18, 0xDA	; 218
 5a6:	3f e0       	ldi	r19, 0x0F	; 15
 5a8:	49 ec       	ldi	r20, 0xC9	; 201
 5aa:	5f e3       	ldi	r21, 0x3F	; 63
 5ac:	d0 78       	andi	r29, 0x80	; 128
 5ae:	5d 27       	eor	r21, r29
 5b0:	04 d2       	rcall	.+1032   	; 0x9ba <__addsf3x>
 5b2:	df 91       	pop	r29
 5b4:	3d c1       	rjmp	.+634    	; 0x830 <__fp_round>

000005b6 <cos>:
 5b6:	15 d1       	rcall	.+554    	; 0x7e2 <__fp_rempio2>
 5b8:	e3 95       	inc	r30
 5ba:	4b c1       	rjmp	.+662    	; 0x852 <__fp_sinus>

000005bc <__divsf3>:
 5bc:	0c d0       	rcall	.+24     	; 0x5d6 <__divsf3x>
 5be:	38 c1       	rjmp	.+624    	; 0x830 <__fp_round>
 5c0:	08 d1       	rcall	.+528    	; 0x7d2 <__fp_pscB>
 5c2:	40 f0       	brcs	.+16     	; 0x5d4 <__divsf3+0x18>
 5c4:	ff d0       	rcall	.+510    	; 0x7c4 <__fp_pscA>
 5c6:	30 f0       	brcs	.+12     	; 0x5d4 <__divsf3+0x18>
 5c8:	21 f4       	brne	.+8      	; 0x5d2 <__divsf3+0x16>
 5ca:	5f 3f       	cpi	r21, 0xFF	; 255
 5cc:	19 f0       	breq	.+6      	; 0x5d4 <__divsf3+0x18>
 5ce:	cc c0       	rjmp	.+408    	; 0x768 <__fp_inf>
 5d0:	51 11       	cpse	r21, r1
 5d2:	73 c1       	rjmp	.+742    	; 0x8ba <__fp_szero>
 5d4:	cf c0       	rjmp	.+414    	; 0x774 <__fp_nan>

000005d6 <__divsf3x>:
 5d6:	4e d1       	rcall	.+668    	; 0x874 <__fp_split3>
 5d8:	98 f3       	brcs	.-26     	; 0x5c0 <__divsf3+0x4>

000005da <__divsf3_pse>:
 5da:	99 23       	and	r25, r25
 5dc:	c9 f3       	breq	.-14     	; 0x5d0 <__divsf3+0x14>
 5de:	55 23       	and	r21, r21
 5e0:	b1 f3       	breq	.-20     	; 0x5ce <__divsf3+0x12>
 5e2:	95 1b       	sub	r25, r21
 5e4:	55 0b       	sbc	r21, r21
 5e6:	bb 27       	eor	r27, r27
 5e8:	aa 27       	eor	r26, r26
 5ea:	62 17       	cp	r22, r18
 5ec:	73 07       	cpc	r23, r19
 5ee:	84 07       	cpc	r24, r20
 5f0:	38 f0       	brcs	.+14     	; 0x600 <__divsf3_pse+0x26>
 5f2:	9f 5f       	subi	r25, 0xFF	; 255
 5f4:	5f 4f       	sbci	r21, 0xFF	; 255
 5f6:	22 0f       	add	r18, r18
 5f8:	33 1f       	adc	r19, r19
 5fa:	44 1f       	adc	r20, r20
 5fc:	aa 1f       	adc	r26, r26
 5fe:	a9 f3       	breq	.-22     	; 0x5ea <__divsf3_pse+0x10>
 600:	33 d0       	rcall	.+102    	; 0x668 <__divsf3_pse+0x8e>
 602:	0e 2e       	mov	r0, r30
 604:	3a f0       	brmi	.+14     	; 0x614 <__divsf3_pse+0x3a>
 606:	e0 e8       	ldi	r30, 0x80	; 128
 608:	30 d0       	rcall	.+96     	; 0x66a <__divsf3_pse+0x90>
 60a:	91 50       	subi	r25, 0x01	; 1
 60c:	50 40       	sbci	r21, 0x00	; 0
 60e:	e6 95       	lsr	r30
 610:	00 1c       	adc	r0, r0
 612:	ca f7       	brpl	.-14     	; 0x606 <__divsf3_pse+0x2c>
 614:	29 d0       	rcall	.+82     	; 0x668 <__divsf3_pse+0x8e>
 616:	fe 2f       	mov	r31, r30
 618:	27 d0       	rcall	.+78     	; 0x668 <__divsf3_pse+0x8e>
 61a:	66 0f       	add	r22, r22
 61c:	77 1f       	adc	r23, r23
 61e:	88 1f       	adc	r24, r24
 620:	bb 1f       	adc	r27, r27
 622:	26 17       	cp	r18, r22
 624:	37 07       	cpc	r19, r23
 626:	48 07       	cpc	r20, r24
 628:	ab 07       	cpc	r26, r27
 62a:	b0 e8       	ldi	r27, 0x80	; 128
 62c:	09 f0       	breq	.+2      	; 0x630 <__divsf3_pse+0x56>
 62e:	bb 0b       	sbc	r27, r27
 630:	80 2d       	mov	r24, r0
 632:	bf 01       	movw	r22, r30
 634:	ff 27       	eor	r31, r31
 636:	93 58       	subi	r25, 0x83	; 131
 638:	5f 4f       	sbci	r21, 0xFF	; 255
 63a:	2a f0       	brmi	.+10     	; 0x646 <__divsf3_pse+0x6c>
 63c:	9e 3f       	cpi	r25, 0xFE	; 254
 63e:	51 05       	cpc	r21, r1
 640:	68 f0       	brcs	.+26     	; 0x65c <__divsf3_pse+0x82>
 642:	92 c0       	rjmp	.+292    	; 0x768 <__fp_inf>
 644:	3a c1       	rjmp	.+628    	; 0x8ba <__fp_szero>
 646:	5f 3f       	cpi	r21, 0xFF	; 255
 648:	ec f3       	brlt	.-6      	; 0x644 <__divsf3_pse+0x6a>
 64a:	98 3e       	cpi	r25, 0xE8	; 232
 64c:	dc f3       	brlt	.-10     	; 0x644 <__divsf3_pse+0x6a>
 64e:	86 95       	lsr	r24
 650:	77 95       	ror	r23
 652:	67 95       	ror	r22
 654:	b7 95       	ror	r27
 656:	f7 95       	ror	r31
 658:	9f 5f       	subi	r25, 0xFF	; 255
 65a:	c9 f7       	brne	.-14     	; 0x64e <__divsf3_pse+0x74>
 65c:	88 0f       	add	r24, r24
 65e:	91 1d       	adc	r25, r1
 660:	96 95       	lsr	r25
 662:	87 95       	ror	r24
 664:	97 f9       	bld	r25, 7
 666:	08 95       	ret
 668:	e1 e0       	ldi	r30, 0x01	; 1
 66a:	66 0f       	add	r22, r22
 66c:	77 1f       	adc	r23, r23
 66e:	88 1f       	adc	r24, r24
 670:	bb 1f       	adc	r27, r27
 672:	62 17       	cp	r22, r18
 674:	73 07       	cpc	r23, r19
 676:	84 07       	cpc	r24, r20
 678:	ba 07       	cpc	r27, r26
 67a:	20 f0       	brcs	.+8      	; 0x684 <__divsf3_pse+0xaa>
 67c:	62 1b       	sub	r22, r18
 67e:	73 0b       	sbc	r23, r19
 680:	84 0b       	sbc	r24, r20
 682:	ba 0b       	sbc	r27, r26
 684:	ee 1f       	adc	r30, r30
 686:	88 f7       	brcc	.-30     	; 0x66a <__divsf3_pse+0x90>
 688:	e0 95       	com	r30
 68a:	08 95       	ret

0000068c <__fixsfsi>:
 68c:	04 d0       	rcall	.+8      	; 0x696 <__fixunssfsi>
 68e:	68 94       	set
 690:	b1 11       	cpse	r27, r1
 692:	13 c1       	rjmp	.+550    	; 0x8ba <__fp_szero>
 694:	08 95       	ret

00000696 <__fixunssfsi>:
 696:	f6 d0       	rcall	.+492    	; 0x884 <__fp_splitA>
 698:	88 f0       	brcs	.+34     	; 0x6bc <__fixunssfsi+0x26>
 69a:	9f 57       	subi	r25, 0x7F	; 127
 69c:	90 f0       	brcs	.+36     	; 0x6c2 <__fixunssfsi+0x2c>
 69e:	b9 2f       	mov	r27, r25
 6a0:	99 27       	eor	r25, r25
 6a2:	b7 51       	subi	r27, 0x17	; 23
 6a4:	a0 f0       	brcs	.+40     	; 0x6ce <__fixunssfsi+0x38>
 6a6:	d1 f0       	breq	.+52     	; 0x6dc <__fixunssfsi+0x46>
 6a8:	66 0f       	add	r22, r22
 6aa:	77 1f       	adc	r23, r23
 6ac:	88 1f       	adc	r24, r24
 6ae:	99 1f       	adc	r25, r25
 6b0:	1a f0       	brmi	.+6      	; 0x6b8 <__fixunssfsi+0x22>
 6b2:	ba 95       	dec	r27
 6b4:	c9 f7       	brne	.-14     	; 0x6a8 <__fixunssfsi+0x12>
 6b6:	12 c0       	rjmp	.+36     	; 0x6dc <__fixunssfsi+0x46>
 6b8:	b1 30       	cpi	r27, 0x01	; 1
 6ba:	81 f0       	breq	.+32     	; 0x6dc <__fixunssfsi+0x46>
 6bc:	fd d0       	rcall	.+506    	; 0x8b8 <__fp_zero>
 6be:	b1 e0       	ldi	r27, 0x01	; 1
 6c0:	08 95       	ret
 6c2:	fa c0       	rjmp	.+500    	; 0x8b8 <__fp_zero>
 6c4:	67 2f       	mov	r22, r23
 6c6:	78 2f       	mov	r23, r24
 6c8:	88 27       	eor	r24, r24
 6ca:	b8 5f       	subi	r27, 0xF8	; 248
 6cc:	39 f0       	breq	.+14     	; 0x6dc <__fixunssfsi+0x46>
 6ce:	b9 3f       	cpi	r27, 0xF9	; 249
 6d0:	cc f3       	brlt	.-14     	; 0x6c4 <__fixunssfsi+0x2e>
 6d2:	86 95       	lsr	r24
 6d4:	77 95       	ror	r23
 6d6:	67 95       	ror	r22
 6d8:	b3 95       	inc	r27
 6da:	d9 f7       	brne	.-10     	; 0x6d2 <__fixunssfsi+0x3c>
 6dc:	3e f4       	brtc	.+14     	; 0x6ec <__fixunssfsi+0x56>
 6de:	90 95       	com	r25
 6e0:	80 95       	com	r24
 6e2:	70 95       	com	r23
 6e4:	61 95       	neg	r22
 6e6:	7f 4f       	sbci	r23, 0xFF	; 255
 6e8:	8f 4f       	sbci	r24, 0xFF	; 255
 6ea:	9f 4f       	sbci	r25, 0xFF	; 255
 6ec:	08 95       	ret

000006ee <__floatunsisf>:
 6ee:	e8 94       	clt
 6f0:	09 c0       	rjmp	.+18     	; 0x704 <__floatsisf+0x12>

000006f2 <__floatsisf>:
 6f2:	97 fb       	bst	r25, 7
 6f4:	3e f4       	brtc	.+14     	; 0x704 <__floatsisf+0x12>
 6f6:	90 95       	com	r25
 6f8:	80 95       	com	r24
 6fa:	70 95       	com	r23
 6fc:	61 95       	neg	r22
 6fe:	7f 4f       	sbci	r23, 0xFF	; 255
 700:	8f 4f       	sbci	r24, 0xFF	; 255
 702:	9f 4f       	sbci	r25, 0xFF	; 255
 704:	99 23       	and	r25, r25
 706:	a9 f0       	breq	.+42     	; 0x732 <__floatsisf+0x40>
 708:	f9 2f       	mov	r31, r25
 70a:	96 e9       	ldi	r25, 0x96	; 150
 70c:	bb 27       	eor	r27, r27
 70e:	93 95       	inc	r25
 710:	f6 95       	lsr	r31
 712:	87 95       	ror	r24
 714:	77 95       	ror	r23
 716:	67 95       	ror	r22
 718:	b7 95       	ror	r27
 71a:	f1 11       	cpse	r31, r1
 71c:	f8 cf       	rjmp	.-16     	; 0x70e <__floatsisf+0x1c>
 71e:	fa f4       	brpl	.+62     	; 0x75e <__floatsisf+0x6c>
 720:	bb 0f       	add	r27, r27
 722:	11 f4       	brne	.+4      	; 0x728 <__floatsisf+0x36>
 724:	60 ff       	sbrs	r22, 0
 726:	1b c0       	rjmp	.+54     	; 0x75e <__floatsisf+0x6c>
 728:	6f 5f       	subi	r22, 0xFF	; 255
 72a:	7f 4f       	sbci	r23, 0xFF	; 255
 72c:	8f 4f       	sbci	r24, 0xFF	; 255
 72e:	9f 4f       	sbci	r25, 0xFF	; 255
 730:	16 c0       	rjmp	.+44     	; 0x75e <__floatsisf+0x6c>
 732:	88 23       	and	r24, r24
 734:	11 f0       	breq	.+4      	; 0x73a <__floatsisf+0x48>
 736:	96 e9       	ldi	r25, 0x96	; 150
 738:	11 c0       	rjmp	.+34     	; 0x75c <__floatsisf+0x6a>
 73a:	77 23       	and	r23, r23
 73c:	21 f0       	breq	.+8      	; 0x746 <__floatsisf+0x54>
 73e:	9e e8       	ldi	r25, 0x8E	; 142
 740:	87 2f       	mov	r24, r23
 742:	76 2f       	mov	r23, r22
 744:	05 c0       	rjmp	.+10     	; 0x750 <__floatsisf+0x5e>
 746:	66 23       	and	r22, r22
 748:	71 f0       	breq	.+28     	; 0x766 <__floatsisf+0x74>
 74a:	96 e8       	ldi	r25, 0x86	; 134
 74c:	86 2f       	mov	r24, r22
 74e:	70 e0       	ldi	r23, 0x00	; 0
 750:	60 e0       	ldi	r22, 0x00	; 0
 752:	2a f0       	brmi	.+10     	; 0x75e <__floatsisf+0x6c>
 754:	9a 95       	dec	r25
 756:	66 0f       	add	r22, r22
 758:	77 1f       	adc	r23, r23
 75a:	88 1f       	adc	r24, r24
 75c:	da f7       	brpl	.-10     	; 0x754 <__floatsisf+0x62>
 75e:	88 0f       	add	r24, r24
 760:	96 95       	lsr	r25
 762:	87 95       	ror	r24
 764:	97 f9       	bld	r25, 7
 766:	08 95       	ret

00000768 <__fp_inf>:
 768:	97 f9       	bld	r25, 7
 76a:	9f 67       	ori	r25, 0x7F	; 127
 76c:	80 e8       	ldi	r24, 0x80	; 128
 76e:	70 e0       	ldi	r23, 0x00	; 0
 770:	60 e0       	ldi	r22, 0x00	; 0
 772:	08 95       	ret

00000774 <__fp_nan>:
 774:	9f ef       	ldi	r25, 0xFF	; 255
 776:	80 ec       	ldi	r24, 0xC0	; 192
 778:	08 95       	ret

0000077a <__fp_powser>:
 77a:	df 93       	push	r29
 77c:	cf 93       	push	r28
 77e:	1f 93       	push	r17
 780:	0f 93       	push	r16
 782:	ff 92       	push	r15
 784:	ef 92       	push	r14
 786:	df 92       	push	r13
 788:	7b 01       	movw	r14, r22
 78a:	8c 01       	movw	r16, r24
 78c:	68 94       	set
 78e:	05 c0       	rjmp	.+10     	; 0x79a <__fp_powser+0x20>
 790:	da 2e       	mov	r13, r26
 792:	ef 01       	movw	r28, r30
 794:	ab d0       	rcall	.+342    	; 0x8ec <__mulsf3x>
 796:	fe 01       	movw	r30, r28
 798:	e8 94       	clt
 79a:	a5 91       	lpm	r26, Z+
 79c:	25 91       	lpm	r18, Z+
 79e:	35 91       	lpm	r19, Z+
 7a0:	45 91       	lpm	r20, Z+
 7a2:	55 91       	lpm	r21, Z+
 7a4:	ae f3       	brts	.-22     	; 0x790 <__fp_powser+0x16>
 7a6:	ef 01       	movw	r28, r30
 7a8:	08 d1       	rcall	.+528    	; 0x9ba <__addsf3x>
 7aa:	fe 01       	movw	r30, r28
 7ac:	97 01       	movw	r18, r14
 7ae:	a8 01       	movw	r20, r16
 7b0:	da 94       	dec	r13
 7b2:	79 f7       	brne	.-34     	; 0x792 <__fp_powser+0x18>
 7b4:	df 90       	pop	r13
 7b6:	ef 90       	pop	r14
 7b8:	ff 90       	pop	r15
 7ba:	0f 91       	pop	r16
 7bc:	1f 91       	pop	r17
 7be:	cf 91       	pop	r28
 7c0:	df 91       	pop	r29
 7c2:	08 95       	ret

000007c4 <__fp_pscA>:
 7c4:	00 24       	eor	r0, r0
 7c6:	0a 94       	dec	r0
 7c8:	16 16       	cp	r1, r22
 7ca:	17 06       	cpc	r1, r23
 7cc:	18 06       	cpc	r1, r24
 7ce:	09 06       	cpc	r0, r25
 7d0:	08 95       	ret

000007d2 <__fp_pscB>:
 7d2:	00 24       	eor	r0, r0
 7d4:	0a 94       	dec	r0
 7d6:	12 16       	cp	r1, r18
 7d8:	13 06       	cpc	r1, r19
 7da:	14 06       	cpc	r1, r20
 7dc:	05 06       	cpc	r0, r21
 7de:	08 95       	ret
 7e0:	c9 cf       	rjmp	.-110    	; 0x774 <__fp_nan>

000007e2 <__fp_rempio2>:
 7e2:	50 d0       	rcall	.+160    	; 0x884 <__fp_splitA>
 7e4:	e8 f3       	brcs	.-6      	; 0x7e0 <__fp_pscB+0xe>
 7e6:	e8 94       	clt
 7e8:	e0 e0       	ldi	r30, 0x00	; 0
 7ea:	bb 27       	eor	r27, r27
 7ec:	9f 57       	subi	r25, 0x7F	; 127
 7ee:	f0 f0       	brcs	.+60     	; 0x82c <__fp_rempio2+0x4a>
 7f0:	2a ed       	ldi	r18, 0xDA	; 218
 7f2:	3f e0       	ldi	r19, 0x0F	; 15
 7f4:	49 ec       	ldi	r20, 0xC9	; 201
 7f6:	06 c0       	rjmp	.+12     	; 0x804 <__fp_rempio2+0x22>
 7f8:	ee 0f       	add	r30, r30
 7fa:	bb 0f       	add	r27, r27
 7fc:	66 1f       	adc	r22, r22
 7fe:	77 1f       	adc	r23, r23
 800:	88 1f       	adc	r24, r24
 802:	28 f0       	brcs	.+10     	; 0x80e <__fp_rempio2+0x2c>
 804:	b2 3a       	cpi	r27, 0xA2	; 162
 806:	62 07       	cpc	r22, r18
 808:	73 07       	cpc	r23, r19
 80a:	84 07       	cpc	r24, r20
 80c:	28 f0       	brcs	.+10     	; 0x818 <__fp_rempio2+0x36>
 80e:	b2 5a       	subi	r27, 0xA2	; 162
 810:	62 0b       	sbc	r22, r18
 812:	73 0b       	sbc	r23, r19
 814:	84 0b       	sbc	r24, r20
 816:	e3 95       	inc	r30
 818:	9a 95       	dec	r25
 81a:	72 f7       	brpl	.-36     	; 0x7f8 <__fp_rempio2+0x16>
 81c:	80 38       	cpi	r24, 0x80	; 128
 81e:	30 f4       	brcc	.+12     	; 0x82c <__fp_rempio2+0x4a>
 820:	9a 95       	dec	r25
 822:	bb 0f       	add	r27, r27
 824:	66 1f       	adc	r22, r22
 826:	77 1f       	adc	r23, r23
 828:	88 1f       	adc	r24, r24
 82a:	d2 f7       	brpl	.-12     	; 0x820 <__fp_rempio2+0x3e>
 82c:	90 48       	sbci	r25, 0x80	; 128
 82e:	1a c1       	rjmp	.+564    	; 0xa64 <__fp_mpack_finite>

00000830 <__fp_round>:
 830:	09 2e       	mov	r0, r25
 832:	03 94       	inc	r0
 834:	00 0c       	add	r0, r0
 836:	11 f4       	brne	.+4      	; 0x83c <__fp_round+0xc>
 838:	88 23       	and	r24, r24
 83a:	52 f0       	brmi	.+20     	; 0x850 <__fp_round+0x20>
 83c:	bb 0f       	add	r27, r27
 83e:	40 f4       	brcc	.+16     	; 0x850 <__fp_round+0x20>
 840:	bf 2b       	or	r27, r31
 842:	11 f4       	brne	.+4      	; 0x848 <__fp_round+0x18>
 844:	60 ff       	sbrs	r22, 0
 846:	04 c0       	rjmp	.+8      	; 0x850 <__fp_round+0x20>
 848:	6f 5f       	subi	r22, 0xFF	; 255
 84a:	7f 4f       	sbci	r23, 0xFF	; 255
 84c:	8f 4f       	sbci	r24, 0xFF	; 255
 84e:	9f 4f       	sbci	r25, 0xFF	; 255
 850:	08 95       	ret

00000852 <__fp_sinus>:
 852:	ef 93       	push	r30
 854:	e0 ff       	sbrs	r30, 0
 856:	06 c0       	rjmp	.+12     	; 0x864 <__fp_sinus+0x12>
 858:	a2 ea       	ldi	r26, 0xA2	; 162
 85a:	2a ed       	ldi	r18, 0xDA	; 218
 85c:	3f e0       	ldi	r19, 0x0F	; 15
 85e:	49 ec       	ldi	r20, 0xC9	; 201
 860:	5f eb       	ldi	r21, 0xBF	; 191
 862:	ab d0       	rcall	.+342    	; 0x9ba <__addsf3x>
 864:	e5 df       	rcall	.-54     	; 0x830 <__fp_round>
 866:	0f 90       	pop	r0
 868:	03 94       	inc	r0
 86a:	01 fc       	sbrc	r0, 1
 86c:	90 58       	subi	r25, 0x80	; 128
 86e:	e9 eb       	ldi	r30, 0xB9	; 185
 870:	f0 e0       	ldi	r31, 0x00	; 0
 872:	04 c1       	rjmp	.+520    	; 0xa7c <__fp_powsodd>

00000874 <__fp_split3>:
 874:	57 fd       	sbrc	r21, 7
 876:	90 58       	subi	r25, 0x80	; 128
 878:	44 0f       	add	r20, r20
 87a:	55 1f       	adc	r21, r21
 87c:	59 f0       	breq	.+22     	; 0x894 <__fp_splitA+0x10>
 87e:	5f 3f       	cpi	r21, 0xFF	; 255
 880:	71 f0       	breq	.+28     	; 0x89e <__fp_splitA+0x1a>
 882:	47 95       	ror	r20

00000884 <__fp_splitA>:
 884:	88 0f       	add	r24, r24
 886:	97 fb       	bst	r25, 7
 888:	99 1f       	adc	r25, r25
 88a:	61 f0       	breq	.+24     	; 0x8a4 <__fp_splitA+0x20>
 88c:	9f 3f       	cpi	r25, 0xFF	; 255
 88e:	79 f0       	breq	.+30     	; 0x8ae <__fp_splitA+0x2a>
 890:	87 95       	ror	r24
 892:	08 95       	ret
 894:	12 16       	cp	r1, r18
 896:	13 06       	cpc	r1, r19
 898:	14 06       	cpc	r1, r20
 89a:	55 1f       	adc	r21, r21
 89c:	f2 cf       	rjmp	.-28     	; 0x882 <__fp_split3+0xe>
 89e:	46 95       	lsr	r20
 8a0:	f1 df       	rcall	.-30     	; 0x884 <__fp_splitA>
 8a2:	08 c0       	rjmp	.+16     	; 0x8b4 <__fp_splitA+0x30>
 8a4:	16 16       	cp	r1, r22
 8a6:	17 06       	cpc	r1, r23
 8a8:	18 06       	cpc	r1, r24
 8aa:	99 1f       	adc	r25, r25
 8ac:	f1 cf       	rjmp	.-30     	; 0x890 <__fp_splitA+0xc>
 8ae:	86 95       	lsr	r24
 8b0:	71 05       	cpc	r23, r1
 8b2:	61 05       	cpc	r22, r1
 8b4:	08 94       	sec
 8b6:	08 95       	ret

000008b8 <__fp_zero>:
 8b8:	e8 94       	clt

000008ba <__fp_szero>:
 8ba:	bb 27       	eor	r27, r27
 8bc:	66 27       	eor	r22, r22
 8be:	77 27       	eor	r23, r23
 8c0:	cb 01       	movw	r24, r22
 8c2:	97 f9       	bld	r25, 7
 8c4:	08 95       	ret

000008c6 <inverse>:
 8c6:	9b 01       	movw	r18, r22
 8c8:	ac 01       	movw	r20, r24
 8ca:	60 e0       	ldi	r22, 0x00	; 0
 8cc:	70 e0       	ldi	r23, 0x00	; 0
 8ce:	80 e8       	ldi	r24, 0x80	; 128
 8d0:	9f e3       	ldi	r25, 0x3F	; 63
 8d2:	74 ce       	rjmp	.-792    	; 0x5bc <__divsf3>

000008d4 <__mulsf3>:
 8d4:	0b d0       	rcall	.+22     	; 0x8ec <__mulsf3x>
 8d6:	ac cf       	rjmp	.-168    	; 0x830 <__fp_round>
 8d8:	75 df       	rcall	.-278    	; 0x7c4 <__fp_pscA>
 8da:	28 f0       	brcs	.+10     	; 0x8e6 <__mulsf3+0x12>
 8dc:	7a df       	rcall	.-268    	; 0x7d2 <__fp_pscB>
 8de:	18 f0       	brcs	.+6      	; 0x8e6 <__mulsf3+0x12>
 8e0:	95 23       	and	r25, r21
 8e2:	09 f0       	breq	.+2      	; 0x8e6 <__mulsf3+0x12>
 8e4:	41 cf       	rjmp	.-382    	; 0x768 <__fp_inf>
 8e6:	46 cf       	rjmp	.-372    	; 0x774 <__fp_nan>
 8e8:	11 24       	eor	r1, r1
 8ea:	e7 cf       	rjmp	.-50     	; 0x8ba <__fp_szero>

000008ec <__mulsf3x>:
 8ec:	c3 df       	rcall	.-122    	; 0x874 <__fp_split3>
 8ee:	a0 f3       	brcs	.-24     	; 0x8d8 <__mulsf3+0x4>

000008f0 <__mulsf3_pse>:
 8f0:	95 9f       	mul	r25, r21
 8f2:	d1 f3       	breq	.-12     	; 0x8e8 <__mulsf3+0x14>
 8f4:	95 0f       	add	r25, r21
 8f6:	50 e0       	ldi	r21, 0x00	; 0
 8f8:	55 1f       	adc	r21, r21
 8fa:	62 9f       	mul	r22, r18
 8fc:	f0 01       	movw	r30, r0
 8fe:	72 9f       	mul	r23, r18
 900:	bb 27       	eor	r27, r27
 902:	f0 0d       	add	r31, r0
 904:	b1 1d       	adc	r27, r1
 906:	63 9f       	mul	r22, r19
 908:	aa 27       	eor	r26, r26
 90a:	f0 0d       	add	r31, r0
 90c:	b1 1d       	adc	r27, r1
 90e:	aa 1f       	adc	r26, r26
 910:	64 9f       	mul	r22, r20
 912:	66 27       	eor	r22, r22
 914:	b0 0d       	add	r27, r0
 916:	a1 1d       	adc	r26, r1
 918:	66 1f       	adc	r22, r22
 91a:	82 9f       	mul	r24, r18
 91c:	22 27       	eor	r18, r18
 91e:	b0 0d       	add	r27, r0
 920:	a1 1d       	adc	r26, r1
 922:	62 1f       	adc	r22, r18
 924:	73 9f       	mul	r23, r19
 926:	b0 0d       	add	r27, r0
 928:	a1 1d       	adc	r26, r1
 92a:	62 1f       	adc	r22, r18
 92c:	83 9f       	mul	r24, r19
 92e:	a0 0d       	add	r26, r0
 930:	61 1d       	adc	r22, r1
 932:	22 1f       	adc	r18, r18
 934:	74 9f       	mul	r23, r20
 936:	33 27       	eor	r19, r19
 938:	a0 0d       	add	r26, r0
 93a:	61 1d       	adc	r22, r1
 93c:	23 1f       	adc	r18, r19
 93e:	84 9f       	mul	r24, r20
 940:	60 0d       	add	r22, r0
 942:	21 1d       	adc	r18, r1
 944:	82 2f       	mov	r24, r18
 946:	76 2f       	mov	r23, r22
 948:	6a 2f       	mov	r22, r26
 94a:	11 24       	eor	r1, r1
 94c:	9f 57       	subi	r25, 0x7F	; 127
 94e:	50 40       	sbci	r21, 0x00	; 0
 950:	8a f0       	brmi	.+34     	; 0x974 <__mulsf3_pse+0x84>
 952:	e1 f0       	breq	.+56     	; 0x98c <__mulsf3_pse+0x9c>
 954:	88 23       	and	r24, r24
 956:	4a f0       	brmi	.+18     	; 0x96a <__mulsf3_pse+0x7a>
 958:	ee 0f       	add	r30, r30
 95a:	ff 1f       	adc	r31, r31
 95c:	bb 1f       	adc	r27, r27
 95e:	66 1f       	adc	r22, r22
 960:	77 1f       	adc	r23, r23
 962:	88 1f       	adc	r24, r24
 964:	91 50       	subi	r25, 0x01	; 1
 966:	50 40       	sbci	r21, 0x00	; 0
 968:	a9 f7       	brne	.-22     	; 0x954 <__mulsf3_pse+0x64>
 96a:	9e 3f       	cpi	r25, 0xFE	; 254
 96c:	51 05       	cpc	r21, r1
 96e:	70 f0       	brcs	.+28     	; 0x98c <__mulsf3_pse+0x9c>
 970:	fb ce       	rjmp	.-522    	; 0x768 <__fp_inf>
 972:	a3 cf       	rjmp	.-186    	; 0x8ba <__fp_szero>
 974:	5f 3f       	cpi	r21, 0xFF	; 255
 976:	ec f3       	brlt	.-6      	; 0x972 <__mulsf3_pse+0x82>
 978:	98 3e       	cpi	r25, 0xE8	; 232
 97a:	dc f3       	brlt	.-10     	; 0x972 <__mulsf3_pse+0x82>
 97c:	86 95       	lsr	r24
 97e:	77 95       	ror	r23
 980:	67 95       	ror	r22
 982:	b7 95       	ror	r27
 984:	f7 95       	ror	r31
 986:	e7 95       	ror	r30
 988:	9f 5f       	subi	r25, 0xFF	; 255
 98a:	c1 f7       	brne	.-16     	; 0x97c <__mulsf3_pse+0x8c>
 98c:	fe 2b       	or	r31, r30
 98e:	88 0f       	add	r24, r24
 990:	91 1d       	adc	r25, r1
 992:	96 95       	lsr	r25
 994:	87 95       	ror	r24
 996:	97 f9       	bld	r25, 7
 998:	08 95       	ret

0000099a <square>:
 99a:	9b 01       	movw	r18, r22
 99c:	ac 01       	movw	r20, r24
 99e:	9a cf       	rjmp	.-204    	; 0x8d4 <__mulsf3>
 9a0:	11 df       	rcall	.-478    	; 0x7c4 <__fp_pscA>
 9a2:	30 f0       	brcs	.+12     	; 0x9b0 <square+0x16>
 9a4:	16 df       	rcall	.-468    	; 0x7d2 <__fp_pscB>
 9a6:	20 f0       	brcs	.+8      	; 0x9b0 <square+0x16>
 9a8:	31 f4       	brne	.+12     	; 0x9b6 <square+0x1c>
 9aa:	9f 3f       	cpi	r25, 0xFF	; 255
 9ac:	11 f4       	brne	.+4      	; 0x9b2 <square+0x18>
 9ae:	1e f4       	brtc	.+6      	; 0x9b6 <square+0x1c>
 9b0:	e1 ce       	rjmp	.-574    	; 0x774 <__fp_nan>
 9b2:	0e f4       	brtc	.+2      	; 0x9b6 <square+0x1c>
 9b4:	e0 95       	com	r30
 9b6:	e7 fb       	bst	r30, 7
 9b8:	d7 ce       	rjmp	.-594    	; 0x768 <__fp_inf>

000009ba <__addsf3x>:
 9ba:	e9 2f       	mov	r30, r25
 9bc:	5b df       	rcall	.-330    	; 0x874 <__fp_split3>
 9be:	80 f3       	brcs	.-32     	; 0x9a0 <square+0x6>
 9c0:	ba 17       	cp	r27, r26
 9c2:	62 07       	cpc	r22, r18
 9c4:	73 07       	cpc	r23, r19
 9c6:	84 07       	cpc	r24, r20
 9c8:	95 07       	cpc	r25, r21
 9ca:	18 f0       	brcs	.+6      	; 0x9d2 <__addsf3x+0x18>
 9cc:	71 f4       	brne	.+28     	; 0x9ea <__addsf3x+0x30>
 9ce:	9e f5       	brtc	.+102    	; 0xa36 <__addsf3x+0x7c>
 9d0:	73 cf       	rjmp	.-282    	; 0x8b8 <__fp_zero>
 9d2:	0e f4       	brtc	.+2      	; 0x9d6 <__addsf3x+0x1c>
 9d4:	e0 95       	com	r30
 9d6:	0b 2e       	mov	r0, r27
 9d8:	ba 2f       	mov	r27, r26
 9da:	a0 2d       	mov	r26, r0
 9dc:	0b 01       	movw	r0, r22
 9de:	b9 01       	movw	r22, r18
 9e0:	90 01       	movw	r18, r0
 9e2:	0c 01       	movw	r0, r24
 9e4:	ca 01       	movw	r24, r20
 9e6:	a0 01       	movw	r20, r0
 9e8:	11 24       	eor	r1, r1
 9ea:	ff 27       	eor	r31, r31
 9ec:	59 1b       	sub	r21, r25
 9ee:	99 f0       	breq	.+38     	; 0xa16 <__addsf3x+0x5c>
 9f0:	59 3f       	cpi	r21, 0xF9	; 249
 9f2:	50 f4       	brcc	.+20     	; 0xa08 <__addsf3x+0x4e>
 9f4:	50 3e       	cpi	r21, 0xE0	; 224
 9f6:	68 f1       	brcs	.+90     	; 0xa52 <__addsf3x+0x98>
 9f8:	1a 16       	cp	r1, r26
 9fa:	f0 40       	sbci	r31, 0x00	; 0
 9fc:	a2 2f       	mov	r26, r18
 9fe:	23 2f       	mov	r18, r19
 a00:	34 2f       	mov	r19, r20
 a02:	44 27       	eor	r20, r20
 a04:	58 5f       	subi	r21, 0xF8	; 248
 a06:	f3 cf       	rjmp	.-26     	; 0x9ee <__addsf3x+0x34>
 a08:	46 95       	lsr	r20
 a0a:	37 95       	ror	r19
 a0c:	27 95       	ror	r18
 a0e:	a7 95       	ror	r26
 a10:	f0 40       	sbci	r31, 0x00	; 0
 a12:	53 95       	inc	r21
 a14:	c9 f7       	brne	.-14     	; 0xa08 <__addsf3x+0x4e>
 a16:	7e f4       	brtc	.+30     	; 0xa36 <__addsf3x+0x7c>
 a18:	1f 16       	cp	r1, r31
 a1a:	ba 0b       	sbc	r27, r26
 a1c:	62 0b       	sbc	r22, r18
 a1e:	73 0b       	sbc	r23, r19
 a20:	84 0b       	sbc	r24, r20
 a22:	ba f0       	brmi	.+46     	; 0xa52 <__addsf3x+0x98>
 a24:	91 50       	subi	r25, 0x01	; 1
 a26:	a1 f0       	breq	.+40     	; 0xa50 <__addsf3x+0x96>
 a28:	ff 0f       	add	r31, r31
 a2a:	bb 1f       	adc	r27, r27
 a2c:	66 1f       	adc	r22, r22
 a2e:	77 1f       	adc	r23, r23
 a30:	88 1f       	adc	r24, r24
 a32:	c2 f7       	brpl	.-16     	; 0xa24 <__addsf3x+0x6a>
 a34:	0e c0       	rjmp	.+28     	; 0xa52 <__addsf3x+0x98>
 a36:	ba 0f       	add	r27, r26
 a38:	62 1f       	adc	r22, r18
 a3a:	73 1f       	adc	r23, r19
 a3c:	84 1f       	adc	r24, r20
 a3e:	48 f4       	brcc	.+18     	; 0xa52 <__addsf3x+0x98>
 a40:	87 95       	ror	r24
 a42:	77 95       	ror	r23
 a44:	67 95       	ror	r22
 a46:	b7 95       	ror	r27
 a48:	f7 95       	ror	r31
 a4a:	9e 3f       	cpi	r25, 0xFE	; 254
 a4c:	08 f0       	brcs	.+2      	; 0xa50 <__addsf3x+0x96>
 a4e:	b3 cf       	rjmp	.-154    	; 0x9b6 <square+0x1c>
 a50:	93 95       	inc	r25
 a52:	88 0f       	add	r24, r24
 a54:	08 f0       	brcs	.+2      	; 0xa58 <__addsf3x+0x9e>
 a56:	99 27       	eor	r25, r25
 a58:	ee 0f       	add	r30, r30
 a5a:	97 95       	ror	r25
 a5c:	87 95       	ror	r24
 a5e:	08 95       	ret

00000a60 <__fp_mpack>:
 a60:	9f 3f       	cpi	r25, 0xFF	; 255
 a62:	31 f0       	breq	.+12     	; 0xa70 <__fp_mpack_finite+0xc>

00000a64 <__fp_mpack_finite>:
 a64:	91 50       	subi	r25, 0x01	; 1
 a66:	20 f4       	brcc	.+8      	; 0xa70 <__fp_mpack_finite+0xc>
 a68:	87 95       	ror	r24
 a6a:	77 95       	ror	r23
 a6c:	67 95       	ror	r22
 a6e:	b7 95       	ror	r27
 a70:	88 0f       	add	r24, r24
 a72:	91 1d       	adc	r25, r1
 a74:	96 95       	lsr	r25
 a76:	87 95       	ror	r24
 a78:	97 f9       	bld	r25, 7
 a7a:	08 95       	ret

00000a7c <__fp_powsodd>:
 a7c:	9f 93       	push	r25
 a7e:	8f 93       	push	r24
 a80:	7f 93       	push	r23
 a82:	6f 93       	push	r22
 a84:	ff 93       	push	r31
 a86:	ef 93       	push	r30
 a88:	9b 01       	movw	r18, r22
 a8a:	ac 01       	movw	r20, r24
 a8c:	23 df       	rcall	.-442    	; 0x8d4 <__mulsf3>
 a8e:	ef 91       	pop	r30
 a90:	ff 91       	pop	r31
 a92:	73 de       	rcall	.-794    	; 0x77a <__fp_powser>
 a94:	2f 91       	pop	r18
 a96:	3f 91       	pop	r19
 a98:	4f 91       	pop	r20
 a9a:	5f 91       	pop	r21
 a9c:	1b cf       	rjmp	.-458    	; 0x8d4 <__mulsf3>

00000a9e <__divmodhi4>:
 a9e:	97 fb       	bst	r25, 7
 aa0:	07 2e       	mov	r0, r23
 aa2:	16 f4       	brtc	.+4      	; 0xaa8 <__divmodhi4+0xa>
 aa4:	00 94       	com	r0
 aa6:	06 d0       	rcall	.+12     	; 0xab4 <__divmodhi4_neg1>
 aa8:	77 fd       	sbrc	r23, 7
 aaa:	08 d0       	rcall	.+16     	; 0xabc <__divmodhi4_neg2>
 aac:	0b d0       	rcall	.+22     	; 0xac4 <__udivmodhi4>
 aae:	07 fc       	sbrc	r0, 7
 ab0:	05 d0       	rcall	.+10     	; 0xabc <__divmodhi4_neg2>
 ab2:	3e f4       	brtc	.+14     	; 0xac2 <__divmodhi4_exit>

00000ab4 <__divmodhi4_neg1>:
 ab4:	90 95       	com	r25
 ab6:	81 95       	neg	r24
 ab8:	9f 4f       	sbci	r25, 0xFF	; 255
 aba:	08 95       	ret

00000abc <__divmodhi4_neg2>:
 abc:	70 95       	com	r23
 abe:	61 95       	neg	r22
 ac0:	7f 4f       	sbci	r23, 0xFF	; 255

00000ac2 <__divmodhi4_exit>:
 ac2:	08 95       	ret

00000ac4 <__udivmodhi4>:
 ac4:	aa 1b       	sub	r26, r26
 ac6:	bb 1b       	sub	r27, r27
 ac8:	51 e1       	ldi	r21, 0x11	; 17
 aca:	07 c0       	rjmp	.+14     	; 0xada <__udivmodhi4_ep>

00000acc <__udivmodhi4_loop>:
 acc:	aa 1f       	adc	r26, r26
 ace:	bb 1f       	adc	r27, r27
 ad0:	a6 17       	cp	r26, r22
 ad2:	b7 07       	cpc	r27, r23
 ad4:	10 f0       	brcs	.+4      	; 0xada <__udivmodhi4_ep>
 ad6:	a6 1b       	sub	r26, r22
 ad8:	b7 0b       	sbc	r27, r23

00000ada <__udivmodhi4_ep>:
 ada:	88 1f       	adc	r24, r24
 adc:	99 1f       	adc	r25, r25
 ade:	5a 95       	dec	r21
 ae0:	a9 f7       	brne	.-22     	; 0xacc <__udivmodhi4_loop>
 ae2:	80 95       	com	r24
 ae4:	90 95       	com	r25
 ae6:	bc 01       	movw	r22, r24
 ae8:	cd 01       	movw	r24, r26
 aea:	08 95       	ret

00000aec <_exit>:
 aec:	f8 94       	cli

00000aee <__stop_program>:
 aee:	ff cf       	rjmp	.-2      	; 0xaee <__stop_program>
